Archive member included to satisfy reference by file (symbol)

c:/intelfpga_lite/20.1/nios2eds/bin/gnu/h-x86_64-mingw32/bin/../lib/gcc/nios2-elf/10.1.1/mhw-mulx\libgcc.a(_fixunssfsi.o)
                              obj/default/main.o (__fixunssfsi)
c:/intelfpga_lite/20.1/nios2eds/bin/gnu/h-x86_64-mingw32/bin/../lib/gcc/nios2-elf/10.1.1/mhw-mulx\libgcc.a(gesf2.o)
                              c:/intelfpga_lite/20.1/nios2eds/bin/gnu/h-x86_64-mingw32/bin/../lib/gcc/nios2-elf/10.1.1/mhw-mulx\libgcc.a(_fixunssfsi.o) (__gesf2)
c:/intelfpga_lite/20.1/nios2eds/bin/gnu/h-x86_64-mingw32/bin/../lib/gcc/nios2-elf/10.1.1/mhw-mulx\libgcc.a(subsf3.o)
                              c:/intelfpga_lite/20.1/nios2eds/bin/gnu/h-x86_64-mingw32/bin/../lib/gcc/nios2-elf/10.1.1/mhw-mulx\libgcc.a(_fixunssfsi.o) (__subsf3)
c:/intelfpga_lite/20.1/nios2eds/bin/gnu/h-x86_64-mingw32/bin/../lib/gcc/nios2-elf/10.1.1/mhw-mulx\libgcc.a(fixsfsi.o)
                              c:/intelfpga_lite/20.1/nios2eds/bin/gnu/h-x86_64-mingw32/bin/../lib/gcc/nios2-elf/10.1.1/mhw-mulx\libgcc.a(_fixunssfsi.o) (__fixsfsi)
c:/intelfpga_lite/20.1/nios2eds/bin/gnu/h-x86_64-mingw32/bin/../lib/gcc/nios2-elf/10.1.1/mhw-mulx\libgcc.a(floatsisf.o)
                              obj/default/main.o (__floatsisf)
c:/intelfpga_lite/20.1/nios2eds/bin/gnu/h-x86_64-mingw32/bin/../lib/gcc/nios2-elf/10.1.1/mhw-mulx\libgcc.a(_clzsi2.o)
                              c:/intelfpga_lite/20.1/nios2eds/bin/gnu/h-x86_64-mingw32/bin/../lib/gcc/nios2-elf/10.1.1/mhw-mulx\libgcc.a(subsf3.o) (__clzsi2)
c:/intelfpga_lite/20.1/nios2eds/bin/gnu/h-x86_64-mingw32/bin/../lib/gcc/nios2-elf/10.1.1/mhw-mulx\libgcc.a(_clz.o)
                              c:/intelfpga_lite/20.1/nios2eds/bin/gnu/h-x86_64-mingw32/bin/../lib/gcc/nios2-elf/10.1.1/mhw-mulx\libgcc.a(_clzsi2.o) (__clz_tab)
c:/intelfpga_lite/20.1/nios2eds/bin/gnu/h-x86_64-mingw32/bin/../lib/gcc/nios2-elf/10.1.1/../../../../../H-x86_64-mingw32/nios2-elf/lib/mhw-mulx\libc.a(lib_a-puts.o)
                              obj/default/main.o (puts)
c:/intelfpga_lite/20.1/nios2eds/bin/gnu/h-x86_64-mingw32/bin/../lib/gcc/nios2-elf/10.1.1/../../../../../H-x86_64-mingw32/nios2-elf/lib/mhw-mulx\libc.a(lib_a-strlen.o)
                              c:/intelfpga_lite/20.1/nios2eds/bin/gnu/h-x86_64-mingw32/bin/../lib/gcc/nios2-elf/10.1.1/../../../../../H-x86_64-mingw32/nios2-elf/lib/mhw-mulx\libc.a(lib_a-puts.o) (strlen)
c:/intelfpga_lite/20.1/nios2eds/bin/gnu/h-x86_64-mingw32/bin/../lib/gcc/nios2-elf/10.1.1/../../../../../H-x86_64-mingw32/nios2-elf/lib/mhw-mulx\libc.a(lib_a-findfp.o)
                              c:/intelfpga_lite/20.1/nios2eds/bin/gnu/h-x86_64-mingw32/bin/../lib/gcc/nios2-elf/10.1.1/../../../../../H-x86_64-mingw32/nios2-elf/lib/mhw-mulx\libc.a(lib_a-puts.o) (__sinit)
c:/intelfpga_lite/20.1/nios2eds/bin/gnu/h-x86_64-mingw32/bin/../lib/gcc/nios2-elf/10.1.1/../../../../../H-x86_64-mingw32/nios2-elf/lib/mhw-mulx\libc.a(lib_a-fvwrite.o)
                              c:/intelfpga_lite/20.1/nios2eds/bin/gnu/h-x86_64-mingw32/bin/../lib/gcc/nios2-elf/10.1.1/../../../../../H-x86_64-mingw32/nios2-elf/lib/mhw-mulx\libc.a(lib_a-puts.o) (__sfvwrite_r)
c:/intelfpga_lite/20.1/nios2eds/bin/gnu/h-x86_64-mingw32/bin/../lib/gcc/nios2-elf/10.1.1/../../../../../H-x86_64-mingw32/nios2-elf/lib/mhw-mulx\libc.a(lib_a-fwalk.o)
                              c:/intelfpga_lite/20.1/nios2eds/bin/gnu/h-x86_64-mingw32/bin/../lib/gcc/nios2-elf/10.1.1/../../../../../H-x86_64-mingw32/nios2-elf/lib/mhw-mulx\libc.a(lib_a-findfp.o) (_fwalk)
c:/intelfpga_lite/20.1/nios2eds/bin/gnu/h-x86_64-mingw32/bin/../lib/gcc/nios2-elf/10.1.1/../../../../../H-x86_64-mingw32/nios2-elf/lib/mhw-mulx\libc.a(lib_a-impure.o)
                              c:/intelfpga_lite/20.1/nios2eds/bin/gnu/h-x86_64-mingw32/bin/../lib/gcc/nios2-elf/10.1.1/../../../../../H-x86_64-mingw32/nios2-elf/lib/mhw-mulx\libc.a(lib_a-findfp.o) (_global_impure_ptr)
c:/intelfpga_lite/20.1/nios2eds/bin/gnu/h-x86_64-mingw32/bin/../lib/gcc/nios2-elf/10.1.1/../../../../../H-x86_64-mingw32/nios2-elf/lib/mhw-mulx\libc.a(lib_a-mallocr.o)
                              c:/intelfpga_lite/20.1/nios2eds/bin/gnu/h-x86_64-mingw32/bin/../lib/gcc/nios2-elf/10.1.1/../../../../../H-x86_64-mingw32/nios2-elf/lib/mhw-mulx\libc.a(lib_a-findfp.o) (_malloc_r)
c:/intelfpga_lite/20.1/nios2eds/bin/gnu/h-x86_64-mingw32/bin/../lib/gcc/nios2-elf/10.1.1/../../../../../H-x86_64-mingw32/nios2-elf/lib/mhw-mulx\libc.a(lib_a-memchr.o)
                              c:/intelfpga_lite/20.1/nios2eds/bin/gnu/h-x86_64-mingw32/bin/../lib/gcc/nios2-elf/10.1.1/../../../../../H-x86_64-mingw32/nios2-elf/lib/mhw-mulx\libc.a(lib_a-fvwrite.o) (memchr)
c:/intelfpga_lite/20.1/nios2eds/bin/gnu/h-x86_64-mingw32/bin/../lib/gcc/nios2-elf/10.1.1/../../../../../H-x86_64-mingw32/nios2-elf/lib/mhw-mulx\libc.a(lib_a-memcpy.o)
                              c:/intelfpga_lite/20.1/nios2eds/bin/gnu/h-x86_64-mingw32/bin/../lib/gcc/nios2-elf/10.1.1/../../../../../H-x86_64-mingw32/nios2-elf/lib/mhw-mulx\libc.a(lib_a-fvwrite.o) (memcpy)
c:/intelfpga_lite/20.1/nios2eds/bin/gnu/h-x86_64-mingw32/bin/../lib/gcc/nios2-elf/10.1.1/../../../../../H-x86_64-mingw32/nios2-elf/lib/mhw-mulx\libc.a(lib_a-memmove.o)
                              c:/intelfpga_lite/20.1/nios2eds/bin/gnu/h-x86_64-mingw32/bin/../lib/gcc/nios2-elf/10.1.1/../../../../../H-x86_64-mingw32/nios2-elf/lib/mhw-mulx\libc.a(lib_a-fvwrite.o) (memmove)
c:/intelfpga_lite/20.1/nios2eds/bin/gnu/h-x86_64-mingw32/bin/../lib/gcc/nios2-elf/10.1.1/../../../../../H-x86_64-mingw32/nios2-elf/lib/mhw-mulx\libc.a(lib_a-memset.o)
                              c:/intelfpga_lite/20.1/nios2eds/bin/gnu/h-x86_64-mingw32/bin/../lib/gcc/nios2-elf/10.1.1/../../../../../H-x86_64-mingw32/nios2-elf/lib/mhw-mulx\libc.a(lib_a-findfp.o) (memset)
c:/intelfpga_lite/20.1/nios2eds/bin/gnu/h-x86_64-mingw32/bin/../lib/gcc/nios2-elf/10.1.1/../../../../../H-x86_64-mingw32/nios2-elf/lib/mhw-mulx\libc.a(lib_a-reallocr.o)
                              c:/intelfpga_lite/20.1/nios2eds/bin/gnu/h-x86_64-mingw32/bin/../lib/gcc/nios2-elf/10.1.1/../../../../../H-x86_64-mingw32/nios2-elf/lib/mhw-mulx\libc.a(lib_a-fvwrite.o) (_realloc_r)
c:/intelfpga_lite/20.1/nios2eds/bin/gnu/h-x86_64-mingw32/bin/../lib/gcc/nios2-elf/10.1.1/../../../../../H-x86_64-mingw32/nios2-elf/lib/mhw-mulx\libc.a(lib_a-sbrkr.o)
                              c:/intelfpga_lite/20.1/nios2eds/bin/gnu/h-x86_64-mingw32/bin/../lib/gcc/nios2-elf/10.1.1/../../../../../H-x86_64-mingw32/nios2-elf/lib/mhw-mulx\libc.a(lib_a-mallocr.o) (_sbrk_r)
c:/intelfpga_lite/20.1/nios2eds/bin/gnu/h-x86_64-mingw32/bin/../lib/gcc/nios2-elf/10.1.1/../../../../../H-x86_64-mingw32/nios2-elf/lib/mhw-mulx\libc.a(lib_a-stdio.o)
                              c:/intelfpga_lite/20.1/nios2eds/bin/gnu/h-x86_64-mingw32/bin/../lib/gcc/nios2-elf/10.1.1/../../../../../H-x86_64-mingw32/nios2-elf/lib/mhw-mulx\libc.a(lib_a-findfp.o) (__sread)
c:/intelfpga_lite/20.1/nios2eds/bin/gnu/h-x86_64-mingw32/bin/../lib/gcc/nios2-elf/10.1.1/../../../../../H-x86_64-mingw32/nios2-elf/lib/mhw-mulx\libc.a(lib_a-writer.o)
                              c:/intelfpga_lite/20.1/nios2eds/bin/gnu/h-x86_64-mingw32/bin/../lib/gcc/nios2-elf/10.1.1/../../../../../H-x86_64-mingw32/nios2-elf/lib/mhw-mulx\libc.a(lib_a-stdio.o) (_write_r)
c:/intelfpga_lite/20.1/nios2eds/bin/gnu/h-x86_64-mingw32/bin/../lib/gcc/nios2-elf/10.1.1/../../../../../H-x86_64-mingw32/nios2-elf/lib/mhw-mulx\libc.a(lib_a-wsetup.o)
                              c:/intelfpga_lite/20.1/nios2eds/bin/gnu/h-x86_64-mingw32/bin/../lib/gcc/nios2-elf/10.1.1/../../../../../H-x86_64-mingw32/nios2-elf/lib/mhw-mulx\libc.a(lib_a-fvwrite.o) (__swsetup_r)
c:/intelfpga_lite/20.1/nios2eds/bin/gnu/h-x86_64-mingw32/bin/../lib/gcc/nios2-elf/10.1.1/../../../../../H-x86_64-mingw32/nios2-elf/lib/mhw-mulx\libc.a(closer.o)
                              c:/intelfpga_lite/20.1/nios2eds/bin/gnu/h-x86_64-mingw32/bin/../lib/gcc/nios2-elf/10.1.1/../../../../../H-x86_64-mingw32/nios2-elf/lib/mhw-mulx\libc.a(lib_a-stdio.o) (_close_r)
c:/intelfpga_lite/20.1/nios2eds/bin/gnu/h-x86_64-mingw32/bin/../lib/gcc/nios2-elf/10.1.1/../../../../../H-x86_64-mingw32/nios2-elf/lib/mhw-mulx\libc.a(lib_a-fclose.o)
                              c:/intelfpga_lite/20.1/nios2eds/bin/gnu/h-x86_64-mingw32/bin/../lib/gcc/nios2-elf/10.1.1/../../../../../H-x86_64-mingw32/nios2-elf/lib/mhw-mulx\libc.a(lib_a-findfp.o) (_fclose_r)
c:/intelfpga_lite/20.1/nios2eds/bin/gnu/h-x86_64-mingw32/bin/../lib/gcc/nios2-elf/10.1.1/../../../../../H-x86_64-mingw32/nios2-elf/lib/mhw-mulx\libc.a(lib_a-fflush.o)
                              c:/intelfpga_lite/20.1/nios2eds/bin/gnu/h-x86_64-mingw32/bin/../lib/gcc/nios2-elf/10.1.1/../../../../../H-x86_64-mingw32/nios2-elf/lib/mhw-mulx\libc.a(lib_a-fclose.o) (__sflush_r)
c:/intelfpga_lite/20.1/nios2eds/bin/gnu/h-x86_64-mingw32/bin/../lib/gcc/nios2-elf/10.1.1/../../../../../H-x86_64-mingw32/nios2-elf/lib/mhw-mulx\libc.a(lib_a-freer.o)
                              c:/intelfpga_lite/20.1/nios2eds/bin/gnu/h-x86_64-mingw32/bin/../lib/gcc/nios2-elf/10.1.1/../../../../../H-x86_64-mingw32/nios2-elf/lib/mhw-mulx\libc.a(lib_a-fvwrite.o) (_free_r)
c:/intelfpga_lite/20.1/nios2eds/bin/gnu/h-x86_64-mingw32/bin/../lib/gcc/nios2-elf/10.1.1/../../../../../H-x86_64-mingw32/nios2-elf/lib/mhw-mulx\libc.a(lib_a-int_errno.o)
                              c:/intelfpga_lite/20.1/nios2eds/bin/gnu/h-x86_64-mingw32/bin/../lib/gcc/nios2-elf/10.1.1/../../../../../H-x86_64-mingw32/nios2-elf/lib/mhw-mulx\libc.a(lib_a-sbrkr.o) (errno)
c:/intelfpga_lite/20.1/nios2eds/bin/gnu/h-x86_64-mingw32/bin/../lib/gcc/nios2-elf/10.1.1/../../../../../H-x86_64-mingw32/nios2-elf/lib/mhw-mulx\libc.a(lib_a-lseekr.o)
                              c:/intelfpga_lite/20.1/nios2eds/bin/gnu/h-x86_64-mingw32/bin/../lib/gcc/nios2-elf/10.1.1/../../../../../H-x86_64-mingw32/nios2-elf/lib/mhw-mulx\libc.a(lib_a-stdio.o) (_lseek_r)
c:/intelfpga_lite/20.1/nios2eds/bin/gnu/h-x86_64-mingw32/bin/../lib/gcc/nios2-elf/10.1.1/../../../../../H-x86_64-mingw32/nios2-elf/lib/mhw-mulx\libc.a(lib_a-makebuf.o)
                              c:/intelfpga_lite/20.1/nios2eds/bin/gnu/h-x86_64-mingw32/bin/../lib/gcc/nios2-elf/10.1.1/../../../../../H-x86_64-mingw32/nios2-elf/lib/mhw-mulx\libc.a(lib_a-wsetup.o) (__smakebuf_r)
c:/intelfpga_lite/20.1/nios2eds/bin/gnu/h-x86_64-mingw32/bin/../lib/gcc/nios2-elf/10.1.1/../../../../../H-x86_64-mingw32/nios2-elf/lib/mhw-mulx\libc.a(lib_a-readr.o)
                              c:/intelfpga_lite/20.1/nios2eds/bin/gnu/h-x86_64-mingw32/bin/../lib/gcc/nios2-elf/10.1.1/../../../../../H-x86_64-mingw32/nios2-elf/lib/mhw-mulx\libc.a(lib_a-stdio.o) (_read_r)
c:/intelfpga_lite/20.1/nios2eds/bin/gnu/h-x86_64-mingw32/bin/../lib/gcc/nios2-elf/10.1.1/../../../../../H-x86_64-mingw32/nios2-elf/lib/mhw-mulx\libc.a(lib_a-fstatr.o)
                              c:/intelfpga_lite/20.1/nios2eds/bin/gnu/h-x86_64-mingw32/bin/../lib/gcc/nios2-elf/10.1.1/../../../../../H-x86_64-mingw32/nios2-elf/lib/mhw-mulx\libc.a(lib_a-makebuf.o) (_fstat_r)
c:/intelfpga_lite/20.1/nios2eds/bin/gnu/h-x86_64-mingw32/bin/../lib/gcc/nios2-elf/10.1.1/../../../../../H-x86_64-mingw32/nios2-elf/lib/mhw-mulx\libc.a(lib_a-isattyr.o)
                              c:/intelfpga_lite/20.1/nios2eds/bin/gnu/h-x86_64-mingw32/bin/../lib/gcc/nios2-elf/10.1.1/../../../../../H-x86_64-mingw32/nios2-elf/lib/mhw-mulx\libc.a(lib_a-makebuf.o) (_isatty_r)
c:/intelfpga_lite/20.1/nios2eds/bin/gnu/h-x86_64-mingw32/bin/../lib/gcc/nios2-elf/10.1.1/mhw-mulx\libgcc.a(lib2-divmod.o)
                              c:/intelfpga_lite/20.1/nios2eds/bin/gnu/h-x86_64-mingw32/bin/../lib/gcc/nios2-elf/10.1.1/../../../../../H-x86_64-mingw32/nios2-elf/lib/mhw-mulx\libc.a(lib_a-fvwrite.o) (__divsi3)
c:/users/bdunne/source/lcd_camera_example/lcd_camera_bsp\libhal_bsp.a(alt_close.o)
                              c:/intelfpga_lite/20.1/nios2eds/bin/gnu/h-x86_64-mingw32/bin/../lib/gcc/nios2-elf/10.1.1/../../../../../H-x86_64-mingw32/nios2-elf/lib/mhw-mulx\libc.a(closer.o) (close)
c:/users/bdunne/source/lcd_camera_example/lcd_camera_bsp\libhal_bsp.a(alt_dev.o)
                              c:/users/bdunne/source/lcd_camera_example/lcd_camera_bsp\libhal_bsp.a(alt_close.o) (alt_fd_list)
c:/users/bdunne/source/lcd_camera_example/lcd_camera_bsp\libhal_bsp.a(alt_errno.o)
                              c:/users/bdunne/source/lcd_camera_example/lcd_camera_bsp\libhal_bsp.a(alt_close.o) (alt_errno)
c:/users/bdunne/source/lcd_camera_example/lcd_camera_bsp\libhal_bsp.a(alt_fstat.o)
                              c:/intelfpga_lite/20.1/nios2eds/bin/gnu/h-x86_64-mingw32/bin/../lib/gcc/nios2-elf/10.1.1/../../../../../H-x86_64-mingw32/nios2-elf/lib/mhw-mulx\libc.a(lib_a-fstatr.o) (fstat)
c:/users/bdunne/source/lcd_camera_example/lcd_camera_bsp\libhal_bsp.a(alt_isatty.o)
                              c:/intelfpga_lite/20.1/nios2eds/bin/gnu/h-x86_64-mingw32/bin/../lib/gcc/nios2-elf/10.1.1/../../../../../H-x86_64-mingw32/nios2-elf/lib/mhw-mulx\libc.a(lib_a-isattyr.o) (isatty)
c:/users/bdunne/source/lcd_camera_example/lcd_camera_bsp\libhal_bsp.a(alt_load.o)
                              c:/users/bdunne/source/lcd_camera_example/lcd_camera_bsp/obj/HAL/src/crt0.o (alt_load)
c:/users/bdunne/source/lcd_camera_example/lcd_camera_bsp\libhal_bsp.a(alt_lseek.o)
                              c:/intelfpga_lite/20.1/nios2eds/bin/gnu/h-x86_64-mingw32/bin/../lib/gcc/nios2-elf/10.1.1/../../../../../H-x86_64-mingw32/nios2-elf/lib/mhw-mulx\libc.a(lib_a-lseekr.o) (lseek)
c:/users/bdunne/source/lcd_camera_example/lcd_camera_bsp\libhal_bsp.a(alt_main.o)
                              c:/users/bdunne/source/lcd_camera_example/lcd_camera_bsp/obj/HAL/src/crt0.o (alt_main)
c:/users/bdunne/source/lcd_camera_example/lcd_camera_bsp\libhal_bsp.a(alt_malloc_lock.o)
                              c:/intelfpga_lite/20.1/nios2eds/bin/gnu/h-x86_64-mingw32/bin/../lib/gcc/nios2-elf/10.1.1/../../../../../H-x86_64-mingw32/nios2-elf/lib/mhw-mulx\libc.a(lib_a-mallocr.o) (__malloc_lock)
c:/users/bdunne/source/lcd_camera_example/lcd_camera_bsp\libhal_bsp.a(alt_read.o)
                              c:/intelfpga_lite/20.1/nios2eds/bin/gnu/h-x86_64-mingw32/bin/../lib/gcc/nios2-elf/10.1.1/../../../../../H-x86_64-mingw32/nios2-elf/lib/mhw-mulx\libc.a(lib_a-readr.o) (read)
c:/users/bdunne/source/lcd_camera_example/lcd_camera_bsp\libhal_bsp.a(alt_release_fd.o)
                              c:/users/bdunne/source/lcd_camera_example/lcd_camera_bsp\libhal_bsp.a(alt_close.o) (alt_release_fd)
c:/users/bdunne/source/lcd_camera_example/lcd_camera_bsp\libhal_bsp.a(alt_sbrk.o)
                              c:/intelfpga_lite/20.1/nios2eds/bin/gnu/h-x86_64-mingw32/bin/../lib/gcc/nios2-elf/10.1.1/../../../../../H-x86_64-mingw32/nios2-elf/lib/mhw-mulx\libc.a(lib_a-sbrkr.o) (sbrk)
c:/users/bdunne/source/lcd_camera_example/lcd_camera_bsp\libhal_bsp.a(alt_write.o)
                              c:/intelfpga_lite/20.1/nios2eds/bin/gnu/h-x86_64-mingw32/bin/../lib/gcc/nios2-elf/10.1.1/../../../../../H-x86_64-mingw32/nios2-elf/lib/mhw-mulx\libc.a(lib_a-writer.o) (write)
c:/users/bdunne/source/lcd_camera_example/lcd_camera_bsp\libhal_bsp.a(alt_sys_init.o)
                              c:/users/bdunne/source/lcd_camera_example/lcd_camera_bsp\libhal_bsp.a(alt_main.o) (alt_irq_init)
c:/users/bdunne/source/lcd_camera_example/lcd_camera_bsp\libhal_bsp.a(altera_avalon_i2c.o)
                              c:/users/bdunne/source/lcd_camera_example/lcd_camera_bsp\libhal_bsp.a(alt_sys_init.o) (alt_avalon_i2c_init)
c:/users/bdunne/source/lcd_camera_example/lcd_camera_bsp\libhal_bsp.a(altera_avalon_jtag_uart_fd.o)
                              c:/users/bdunne/source/lcd_camera_example/lcd_camera_bsp\libhal_bsp.a(alt_sys_init.o) (altera_avalon_jtag_uart_read_fd)
c:/users/bdunne/source/lcd_camera_example/lcd_camera_bsp\libhal_bsp.a(altera_avalon_jtag_uart_init.o)
                              c:/users/bdunne/source/lcd_camera_example/lcd_camera_bsp\libhal_bsp.a(alt_sys_init.o) (altera_avalon_jtag_uart_init)
c:/users/bdunne/source/lcd_camera_example/lcd_camera_bsp\libhal_bsp.a(altera_avalon_jtag_uart_ioctl.o)
                              c:/users/bdunne/source/lcd_camera_example/lcd_camera_bsp\libhal_bsp.a(altera_avalon_jtag_uart_fd.o) (altera_avalon_jtag_uart_ioctl)
c:/users/bdunne/source/lcd_camera_example/lcd_camera_bsp\libhal_bsp.a(altera_avalon_jtag_uart_read.o)
                              c:/users/bdunne/source/lcd_camera_example/lcd_camera_bsp\libhal_bsp.a(altera_avalon_jtag_uart_fd.o) (altera_avalon_jtag_uart_read)
c:/users/bdunne/source/lcd_camera_example/lcd_camera_bsp\libhal_bsp.a(altera_avalon_jtag_uart_write.o)
                              c:/users/bdunne/source/lcd_camera_example/lcd_camera_bsp\libhal_bsp.a(altera_avalon_jtag_uart_fd.o) (altera_avalon_jtag_uart_write)
c:/users/bdunne/source/lcd_camera_example/lcd_camera_bsp\libhal_bsp.a(altera_avalon_timer_sc.o)
                              c:/users/bdunne/source/lcd_camera_example/lcd_camera_bsp\libhal_bsp.a(alt_sys_init.o) (alt_avalon_timer_sc_init)
c:/users/bdunne/source/lcd_camera_example/lcd_camera_bsp\libhal_bsp.a(dma_avalon_st_sink_to_mm_master.o)
                              c:/users/bdunne/source/lcd_camera_example/lcd_camera_bsp\libhal_bsp.a(alt_sys_init.o) (dma_s2m_init)
c:/users/bdunne/source/lcd_camera_example/lcd_camera_bsp\libhal_bsp.a(lcd8080.o)
                              c:/users/bdunne/source/lcd_camera_example/lcd_camera_bsp\libhal_bsp.a(alt_sys_init.o) (lcd8080_init)
c:/users/bdunne/source/lcd_camera_example/lcd_camera_bsp\libhal_bsp.a(alt_alarm_start.o)
                              c:/users/bdunne/source/lcd_camera_example/lcd_camera_bsp\libhal_bsp.a(altera_avalon_jtag_uart_init.o) (alt_alarm_start)
c:/users/bdunne/source/lcd_camera_example/lcd_camera_bsp\libhal_bsp.a(alt_busy_sleep.o)
                              c:/users/bdunne/source/lcd_camera_example/lcd_camera_bsp\libhal_bsp.a(altera_avalon_i2c.o) (alt_busy_sleep)
c:/users/bdunne/source/lcd_camera_example/lcd_camera_bsp\libhal_bsp.a(alt_dcache_flush_all.o)
                              c:/users/bdunne/source/lcd_camera_example/lcd_camera_bsp\libhal_bsp.a(alt_load.o) (alt_dcache_flush_all)
c:/users/bdunne/source/lcd_camera_example/lcd_camera_bsp\libhal_bsp.a(alt_dev_llist_insert.o)
                              c:/users/bdunne/source/lcd_camera_example/lcd_camera_bsp\libhal_bsp.a(alt_sys_init.o) (alt_dev_llist_insert)
c:/users/bdunne/source/lcd_camera_example/lcd_camera_bsp\libhal_bsp.a(alt_do_ctors.o)
                              c:/users/bdunne/source/lcd_camera_example/lcd_camera_bsp\libhal_bsp.a(alt_main.o) (_do_ctors)
c:/users/bdunne/source/lcd_camera_example/lcd_camera_bsp\libhal_bsp.a(alt_do_dtors.o)
                              c:/users/bdunne/source/lcd_camera_example/lcd_camera_bsp\libhal_bsp.a(alt_main.o) (_do_dtors)
c:/users/bdunne/source/lcd_camera_example/lcd_camera_bsp\libhal_bsp.a(alt_find_dev.o)
                              c:/users/bdunne/source/lcd_camera_example/lcd_camera_bsp\libhal_bsp.a(altera_avalon_i2c.o) (alt_find_dev)
c:/users/bdunne/source/lcd_camera_example/lcd_camera_bsp\libhal_bsp.a(alt_icache_flush_all.o)
                              c:/users/bdunne/source/lcd_camera_example/lcd_camera_bsp\libhal_bsp.a(alt_load.o) (alt_icache_flush_all)
c:/users/bdunne/source/lcd_camera_example/lcd_camera_bsp\libhal_bsp.a(alt_iic.o)
                              c:/users/bdunne/source/lcd_camera_example/lcd_camera_bsp\libhal_bsp.a(altera_avalon_i2c.o) (alt_ic_isr_register)
c:/users/bdunne/source/lcd_camera_example/lcd_camera_bsp\libhal_bsp.a(alt_iic_isr_register.o)
                              c:/users/bdunne/source/lcd_camera_example/lcd_camera_bsp\libhal_bsp.a(alt_iic.o) (alt_iic_isr_register)
c:/users/bdunne/source/lcd_camera_example/lcd_camera_bsp\libhal_bsp.a(alt_io_redirect.o)
                              c:/users/bdunne/source/lcd_camera_example/lcd_camera_bsp\libhal_bsp.a(alt_main.o) (alt_io_redirect)
c:/users/bdunne/source/lcd_camera_example/lcd_camera_bsp\libhal_bsp.a(alt_irq_entry.o)
                              c:/users/bdunne/source/lcd_camera_example/lcd_camera_bsp\libhal_bsp.a(alt_iic_isr_register.o) (alt_irq_entry)
c:/users/bdunne/source/lcd_camera_example/lcd_camera_bsp\libhal_bsp.a(alt_irq_handler.o)
                              c:/users/bdunne/source/lcd_camera_example/lcd_camera_bsp\libhal_bsp.a(alt_iic_isr_register.o) (alt_irq)
c:/users/bdunne/source/lcd_camera_example/lcd_camera_bsp\libhal_bsp.a(alt_irq_vars.o)
                              c:/users/bdunne/source/lcd_camera_example/lcd_camera_bsp\libhal_bsp.a(alt_iic.o) (alt_irq_active)
c:/users/bdunne/source/lcd_camera_example/lcd_camera_bsp\libhal_bsp.a(alt_open.o)
                              c:/users/bdunne/source/lcd_camera_example/lcd_camera_bsp\libhal_bsp.a(alt_io_redirect.o) (open)
c:/users/bdunne/source/lcd_camera_example/lcd_camera_bsp\libhal_bsp.a(alt_printf.o)
                              c:/users/bdunne/source/lcd_camera_example/lcd_camera_bsp\libhal_bsp.a(altera_avalon_i2c.o) (alt_printf)
c:/users/bdunne/source/lcd_camera_example/lcd_camera_bsp\libhal_bsp.a(alt_putchar.o)
                              c:/users/bdunne/source/lcd_camera_example/lcd_camera_bsp\libhal_bsp.a(alt_printf.o) (alt_putchar)
c:/users/bdunne/source/lcd_camera_example/lcd_camera_bsp\libhal_bsp.a(alt_tick.o)
                              c:/users/bdunne/source/lcd_camera_example/lcd_camera_bsp\libhal_bsp.a(altera_avalon_jtag_uart_init.o) (_alt_tick_rate)
c:/users/bdunne/source/lcd_camera_example/lcd_camera_bsp\libhal_bsp.a(altera_nios2_gen2_irq.o)
                              c:/users/bdunne/source/lcd_camera_example/lcd_camera_bsp\libhal_bsp.a(alt_sys_init.o) (altera_nios2_gen2_irq_init)
c:/users/bdunne/source/lcd_camera_example/lcd_camera_bsp\libhal_bsp.a(alt_exception_entry.o)
                              c:/users/bdunne/source/lcd_camera_example/lcd_camera_bsp\libhal_bsp.a(alt_irq_entry.o) (alt_exception)
c:/users/bdunne/source/lcd_camera_example/lcd_camera_bsp\libhal_bsp.a(alt_find_file.o)
                              c:/users/bdunne/source/lcd_camera_example/lcd_camera_bsp\libhal_bsp.a(alt_open.o) (alt_find_file)
c:/users/bdunne/source/lcd_camera_example/lcd_camera_bsp\libhal_bsp.a(alt_get_fd.o)
                              c:/users/bdunne/source/lcd_camera_example/lcd_camera_bsp\libhal_bsp.a(alt_open.o) (alt_get_fd)
c:/users/bdunne/source/lcd_camera_example/lcd_camera_bsp\libhal_bsp.a(alt_icache_flush.o)
                              c:/users/bdunne/source/lcd_camera_example/lcd_camera_bsp\libhal_bsp.a(alt_icache_flush_all.o) (alt_icache_flush)
c:/users/bdunne/source/lcd_camera_example/lcd_camera_bsp\libhal_bsp.a(alt_instruction_exception_entry.o)
                              c:/users/bdunne/source/lcd_camera_example/lcd_camera_bsp\libhal_bsp.a(alt_exception_entry.o) (alt_instruction_exception_entry)
c:/intelfpga_lite/20.1/nios2eds/bin/gnu/h-x86_64-mingw32/bin/../lib/gcc/nios2-elf/10.1.1/../../../../../H-x86_64-mingw32/nios2-elf/lib/mhw-mulx\libc.a(lib_a-atexit.o)
                              c:/users/bdunne/source/lcd_camera_example/lcd_camera_bsp\libhal_bsp.a(alt_main.o) (atexit)
c:/intelfpga_lite/20.1/nios2eds/bin/gnu/h-x86_64-mingw32/bin/../lib/gcc/nios2-elf/10.1.1/../../../../../H-x86_64-mingw32/nios2-elf/lib/mhw-mulx\libc.a(lib_a-exit.o)
                              c:/users/bdunne/source/lcd_camera_example/lcd_camera_bsp\libhal_bsp.a(alt_main.o) (exit)
c:/intelfpga_lite/20.1/nios2eds/bin/gnu/h-x86_64-mingw32/bin/../lib/gcc/nios2-elf/10.1.1/../../../../../H-x86_64-mingw32/nios2-elf/lib/mhw-mulx\libc.a(lib_a-memcmp.o)
                              c:/users/bdunne/source/lcd_camera_example/lcd_camera_bsp\libhal_bsp.a(alt_find_dev.o) (memcmp)
c:/intelfpga_lite/20.1/nios2eds/bin/gnu/h-x86_64-mingw32/bin/../lib/gcc/nios2-elf/10.1.1/../../../../../H-x86_64-mingw32/nios2-elf/lib/mhw-mulx\libc.a(lib_a-putchar.o)
                              c:/users/bdunne/source/lcd_camera_example/lcd_camera_bsp\libhal_bsp.a(alt_putchar.o) (putchar)
c:/intelfpga_lite/20.1/nios2eds/bin/gnu/h-x86_64-mingw32/bin/../lib/gcc/nios2-elf/10.1.1/../../../../../H-x86_64-mingw32/nios2-elf/lib/mhw-mulx\libc.a(lib_a-__atexit.o)
                              c:/intelfpga_lite/20.1/nios2eds/bin/gnu/h-x86_64-mingw32/bin/../lib/gcc/nios2-elf/10.1.1/../../../../../H-x86_64-mingw32/nios2-elf/lib/mhw-mulx\libc.a(lib_a-atexit.o) (__register_exitproc)
c:/intelfpga_lite/20.1/nios2eds/bin/gnu/h-x86_64-mingw32/bin/../lib/gcc/nios2-elf/10.1.1/../../../../../H-x86_64-mingw32/nios2-elf/lib/mhw-mulx\libc.a(lib_a-__call_atexit.o)
                              c:/intelfpga_lite/20.1/nios2eds/bin/gnu/h-x86_64-mingw32/bin/../lib/gcc/nios2-elf/10.1.1/../../../../../H-x86_64-mingw32/nios2-elf/lib/mhw-mulx\libc.a(lib_a-exit.o) (__call_exitprocs)
c:/intelfpga_lite/20.1/nios2eds/bin/gnu/h-x86_64-mingw32/bin/../lib/gcc/nios2-elf/10.1.1/../../../../../H-x86_64-mingw32/nios2-elf/lib/mhw-mulx\libc.a(lib_a-putc.o)
                              c:/intelfpga_lite/20.1/nios2eds/bin/gnu/h-x86_64-mingw32/bin/../lib/gcc/nios2-elf/10.1.1/../../../../../H-x86_64-mingw32/nios2-elf/lib/mhw-mulx\libc.a(lib_a-putchar.o) (_putc_r)
c:/intelfpga_lite/20.1/nios2eds/bin/gnu/h-x86_64-mingw32/bin/../lib/gcc/nios2-elf/10.1.1/../../../../../H-x86_64-mingw32/nios2-elf/lib/mhw-mulx\libc.a(lib_a-wbuf.o)
                              c:/intelfpga_lite/20.1/nios2eds/bin/gnu/h-x86_64-mingw32/bin/../lib/gcc/nios2-elf/10.1.1/../../../../../H-x86_64-mingw32/nios2-elf/lib/mhw-mulx\libc.a(lib_a-putc.o) (__swbuf_r)
c:/users/bdunne/source/lcd_camera_example/lcd_camera_bsp\libhal_bsp.a(alt_exit.o)
                              c:/intelfpga_lite/20.1/nios2eds/bin/gnu/h-x86_64-mingw32/bin/../lib/gcc/nios2-elf/10.1.1/../../../../../H-x86_64-mingw32/nios2-elf/lib/mhw-mulx\libc.a(lib_a-exit.o) (_exit)

Memory Configuration

Name             Origin             Length             Attributes
reset            0x0000000000000000 0x0000000000000020
SDRAM            0x0000000000000020 0x0000000003ffffe0
*default*        0x0000000000000000 0xffffffffffffffff

Linker script and memory map

LOAD c:/users/bdunne/source/lcd_camera_example/lcd_camera_bsp/obj/HAL/src/crt0.o
LOAD obj/default/camera.o
LOAD obj/default/main.o
LOAD c:/intelfpga_lite/20.1/nios2eds/bin/gnu/h-x86_64-mingw32/bin/../lib/gcc/nios2-elf/10.1.1/../../../../../H-x86_64-mingw32/nios2-elf/lib/mhw-mulx\libstdc++.a
LOAD c:/intelfpga_lite/20.1/nios2eds/bin/gnu/h-x86_64-mingw32/bin/../lib/gcc/nios2-elf/10.1.1/../../../../../H-x86_64-mingw32/nios2-elf/lib/mhw-mulx\libm.a
LOAD c:/intelfpga_lite/20.1/nios2eds/bin/gnu/h-x86_64-mingw32/bin/../lib/gcc/nios2-elf/10.1.1/mhw-mulx\libgcc.a
START GROUP
LOAD c:/intelfpga_lite/20.1/nios2eds/bin/gnu/h-x86_64-mingw32/bin/../lib/gcc/nios2-elf/10.1.1/../../../../../H-x86_64-mingw32/nios2-elf/lib/mhw-mulx\libc.a
LOAD c:/intelfpga_lite/20.1/nios2eds/bin/gnu/h-x86_64-mingw32/bin/../lib/gcc/nios2-elf/10.1.1/mhw-mulx\libgcc.a
LOAD c:/users/bdunne/source/lcd_camera_example/lcd_camera_bsp\libhal_bsp.a
LOAD c:/intelfpga_lite/20.1/nios2eds/bin/gnu/h-x86_64-mingw32/bin/../lib/gcc/nios2-elf/10.1.1/../../../../../H-x86_64-mingw32/nios2-elf/lib/mhw-mulx\libm.a
END GROUP
LOAD c:/intelfpga_lite/20.1/nios2eds/bin/gnu/h-x86_64-mingw32/bin/../lib/gcc/nios2-elf/10.1.1/mhw-mulx\libgcc.a
                0x0000000000000000                __alt_mem_SDRAM = 0x0

.entry          0x0000000000000000       0x20
 *(.entry)
 .entry         0x0000000000000000       0x20 c:/users/bdunne/source/lcd_camera_example/lcd_camera_bsp/obj/HAL/src/crt0.o
                0x0000000000000000                __reset

.exceptions     0x0000000000000020      0x218
                0x0000000000000020                PROVIDE (__ram_exceptions_start = ABSOLUTE (.))
                0x0000000000000020                . = ALIGN (0x20)
 *(.irq)
 *(.exceptions.entry.label)
 .exceptions.entry.label
                0x0000000000000020        0x0 c:/users/bdunne/source/lcd_camera_example/lcd_camera_bsp\libhal_bsp.a(alt_irq_entry.o)
                0x0000000000000020                alt_irq_entry
 .exceptions.entry.label
                0x0000000000000020        0x0 c:/users/bdunne/source/lcd_camera_example/lcd_camera_bsp\libhal_bsp.a(alt_exception_entry.o)
                0x0000000000000020                alt_exception
 *(.exceptions.entry.user)
 *(.exceptions.entry.ecc_fatal)
 *(.exceptions.entry)
 .exceptions.entry
                0x0000000000000020       0x54 c:/users/bdunne/source/lcd_camera_example/lcd_camera_bsp\libhal_bsp.a(alt_exception_entry.o)
 *(.exceptions.irqtest.user)
 *(.exceptions.irqtest)
 .exceptions.irqtest
                0x0000000000000074       0x10 c:/users/bdunne/source/lcd_camera_example/lcd_camera_bsp\libhal_bsp.a(alt_irq_entry.o)
 *(.exceptions.irqhandler.user)
 *(.exceptions.irqhandler)
 .exceptions.irqhandler
                0x0000000000000084        0x4 c:/users/bdunne/source/lcd_camera_example/lcd_camera_bsp\libhal_bsp.a(alt_irq_entry.o)
 *(.exceptions.irqreturn.user)
 *(.exceptions.irqreturn)
 .exceptions.irqreturn
                0x0000000000000088        0x4 c:/users/bdunne/source/lcd_camera_example/lcd_camera_bsp\libhal_bsp.a(alt_irq_entry.o)
 *(.exceptions.notirq.label)
 .exceptions.notirq.label
                0x000000000000008c        0x0 c:/users/bdunne/source/lcd_camera_example/lcd_camera_bsp\libhal_bsp.a(alt_irq_entry.o)
 *(.exceptions.notirq.user)
 *(.exceptions.notirq)
 .exceptions.notirq
                0x000000000000008c        0x8 c:/users/bdunne/source/lcd_camera_example/lcd_camera_bsp\libhal_bsp.a(alt_exception_entry.o)
 *(.exceptions.soft.user)
 *(.exceptions.soft)
 *(.exceptions.unknown.user)
 *(.exceptions.unknown)
 .exceptions.unknown
                0x0000000000000094       0x14 c:/users/bdunne/source/lcd_camera_example/lcd_camera_bsp\libhal_bsp.a(alt_exception_entry.o)
 *(.exceptions.exit.label)
 .exceptions.exit.label
                0x00000000000000a8        0x0 c:/users/bdunne/source/lcd_camera_example/lcd_camera_bsp\libhal_bsp.a(alt_irq_entry.o)
 .exceptions.exit.label
                0x00000000000000a8        0x0 c:/users/bdunne/source/lcd_camera_example/lcd_camera_bsp\libhal_bsp.a(alt_exception_entry.o)
 *(.exceptions.exit.user)
 *(.exceptions.exit)
 .exceptions.exit
                0x00000000000000a8       0x54 c:/users/bdunne/source/lcd_camera_example/lcd_camera_bsp\libhal_bsp.a(alt_exception_entry.o)
 *(.exceptions)
 .exceptions    0x00000000000000fc       0xc8 c:/users/bdunne/source/lcd_camera_example/lcd_camera_bsp\libhal_bsp.a(alt_irq_handler.o)
                0x00000000000000fc                alt_irq_handler
 .exceptions    0x00000000000001c4       0x74 c:/users/bdunne/source/lcd_camera_example/lcd_camera_bsp\libhal_bsp.a(alt_instruction_exception_entry.o)
                0x00000000000001c4                alt_instruction_exception_entry
                0x0000000000000238                PROVIDE (__ram_exceptions_end = ABSOLUTE (.))
                0x0000000000000020                PROVIDE (__flash_exceptions_start = LOADADDR (.exceptions))

.text           0x0000000000000238     0x9218
                [!provide]                        PROVIDE (stext = ABSOLUTE (.))
 *(.interp)
 *(.hash)
 *(.dynsym)
 *(.dynstr)
 *(.gnu.version)
 *(.gnu.version_d)
 *(.gnu.version_r)
 *(.rel.init)
 *(.rela.init)
 *(.rel.text .rel.text.* .rel.gnu.linkonce.t.*)
 *(.rela.text .rela.text.* .rela.gnu.linkonce.t.*)
 *(.rel.fini)
 *(.rela.fini)
 *(.rel.rodata .rel.rodata.* .rel.gnu.linkonce.r.*)
 *(.rela.rodata .rela.rodata.* .rela.gnu.linkonce.r.*)
 *(.rel.data .rel.data.* .rel.gnu.linkonce.d.*)
 *(.rela.data .rela.data.* .rela.gnu.linkonce.d.*)
 *(.rel.tdata .rel.tdata.* .rel.gnu.linkonce.td.*)
 *(.rela.tdata .rela.tdata.* .rela.gnu.linkonce.td.*)
 *(.rel.tbss .rel.tbss.* .rel.gnu.linkonce.tb.*)
 *(.rela.tbss .rela.tbss.* .rela.gnu.linkonce.tb.*)
 *(.rel.ctors)
 *(.rela.ctors)
 *(.rel.dtors)
 *(.rela.dtors)
 *(.rel.got)
 *(.rela.got)
 *(.rel.sdata .rel.sdata.* .rel.gnu.linkonce.s.*)
 *(.rela.sdata .rela.sdata.* .rela.gnu.linkonce.s.*)
 *(.rel.sbss .rel.sbss.* .rel.gnu.linkonce.sb.*)
 *(.rela.sbss .rela.sbss.* .rela.gnu.linkonce.sb.*)
 *(.rel.sdata2 .rel.sdata2.* .rel.gnu.linkonce.s2.*)
 *(.rela.sdata2 .rela.sdata2.* .rela.gnu.linkonce.s2.*)
 *(.rel.sbss2 .rel.sbss2.* .rel.gnu.linkonce.sb2.*)
 *(.rela.sbss2 .rela.sbss2.* .rela.gnu.linkonce.sb2.*)
 *(.rel.bss .rel.bss.* .rel.gnu.linkonce.b.*)
 *(.rela.bss .rela.bss.* .rela.gnu.linkonce.b.*)
 *(.rel.plt)
 *(.rela.plt)
 *(.rel.dyn)
 *(.init)
 *(.plt)
 *(.text .stub .text.* .gnu.linkonce.t.*)
 .text          0x0000000000000238       0x3c c:/users/bdunne/source/lcd_camera_example/lcd_camera_bsp/obj/HAL/src/crt0.o
                0x0000000000000238                _start
 .text          0x0000000000000274      0x56c obj/default/camera.o
                0x0000000000000274                camera_init
                0x00000000000003f8                camera_horizontalFlip
                0x000000000000051c                camera_verticalFlip
                0x0000000000000640                camera_capture
                0x00000000000006f0                camera_registerCallback
                0x0000000000000774                camera_unregisterCallback
 .text          0x00000000000007e0      0x710 obj/default/main.o
                0x0000000000000e1c                main
 .text          0x0000000000000ef0       0x60 c:/intelfpga_lite/20.1/nios2eds/bin/gnu/h-x86_64-mingw32/bin/../lib/gcc/nios2-elf/10.1.1/mhw-mulx\libgcc.a(_fixunssfsi.o)
                0x0000000000000ef0                __fixunssfsi
 .text          0x0000000000000f50       0xb8 c:/intelfpga_lite/20.1/nios2eds/bin/gnu/h-x86_64-mingw32/bin/../lib/gcc/nios2-elf/10.1.1/mhw-mulx\libgcc.a(gesf2.o)
                0x0000000000000f50                __gesf2
                0x0000000000000f50                __gtsf2
 .text          0x0000000000001008      0x494 c:/intelfpga_lite/20.1/nios2eds/bin/gnu/h-x86_64-mingw32/bin/../lib/gcc/nios2-elf/10.1.1/mhw-mulx\libgcc.a(subsf3.o)
                0x0000000000001008                __subsf3
 .text          0x000000000000149c       0x70 c:/intelfpga_lite/20.1/nios2eds/bin/gnu/h-x86_64-mingw32/bin/../lib/gcc/nios2-elf/10.1.1/mhw-mulx\libgcc.a(fixsfsi.o)
                0x000000000000149c                __fixsfsi
 .text          0x000000000000150c      0x124 c:/intelfpga_lite/20.1/nios2eds/bin/gnu/h-x86_64-mingw32/bin/../lib/gcc/nios2-elf/10.1.1/mhw-mulx\libgcc.a(floatsisf.o)
                0x000000000000150c                __floatsisf
 .text          0x0000000000001630       0x54 c:/intelfpga_lite/20.1/nios2eds/bin/gnu/h-x86_64-mingw32/bin/../lib/gcc/nios2-elf/10.1.1/mhw-mulx\libgcc.a(_clzsi2.o)
                0x0000000000001630                __clzsi2
 .text          0x0000000000001684        0x0 c:/intelfpga_lite/20.1/nios2eds/bin/gnu/h-x86_64-mingw32/bin/../lib/gcc/nios2-elf/10.1.1/mhw-mulx\libgcc.a(_clz.o)
 .text          0x0000000000001684        0x0 c:/intelfpga_lite/20.1/nios2eds/bin/gnu/h-x86_64-mingw32/bin/../lib/gcc/nios2-elf/10.1.1/../../../../../H-x86_64-mingw32/nios2-elf/lib/mhw-mulx\libc.a(lib_a-puts.o)
 .text._puts_r  0x0000000000001684       0xcc c:/intelfpga_lite/20.1/nios2eds/bin/gnu/h-x86_64-mingw32/bin/../lib/gcc/nios2-elf/10.1.1/../../../../../H-x86_64-mingw32/nios2-elf/lib/mhw-mulx\libc.a(lib_a-puts.o)
                0x0000000000001684                _puts_r
 .text.puts     0x0000000000001750       0x10 c:/intelfpga_lite/20.1/nios2eds/bin/gnu/h-x86_64-mingw32/bin/../lib/gcc/nios2-elf/10.1.1/../../../../../H-x86_64-mingw32/nios2-elf/lib/mhw-mulx\libc.a(lib_a-puts.o)
                0x0000000000001750                puts
 .text          0x0000000000001760        0x0 c:/intelfpga_lite/20.1/nios2eds/bin/gnu/h-x86_64-mingw32/bin/../lib/gcc/nios2-elf/10.1.1/../../../../../H-x86_64-mingw32/nios2-elf/lib/mhw-mulx\libc.a(lib_a-strlen.o)
 .text.strlen   0x0000000000001760       0x98 c:/intelfpga_lite/20.1/nios2eds/bin/gnu/h-x86_64-mingw32/bin/../lib/gcc/nios2-elf/10.1.1/../../../../../H-x86_64-mingw32/nios2-elf/lib/mhw-mulx\libc.a(lib_a-strlen.o)
                0x0000000000001760                strlen
 .text          0x00000000000017f8        0x0 c:/intelfpga_lite/20.1/nios2eds/bin/gnu/h-x86_64-mingw32/bin/../lib/gcc/nios2-elf/10.1.1/../../../../../H-x86_64-mingw32/nios2-elf/lib/mhw-mulx\libc.a(lib_a-findfp.o)
 .text.__fp_lock
                0x00000000000017f8        0x8 c:/intelfpga_lite/20.1/nios2eds/bin/gnu/h-x86_64-mingw32/bin/../lib/gcc/nios2-elf/10.1.1/../../../../../H-x86_64-mingw32/nios2-elf/lib/mhw-mulx\libc.a(lib_a-findfp.o)
 .text._cleanup_r
                0x0000000000001800        0xc c:/intelfpga_lite/20.1/nios2eds/bin/gnu/h-x86_64-mingw32/bin/../lib/gcc/nios2-elf/10.1.1/../../../../../H-x86_64-mingw32/nios2-elf/lib/mhw-mulx\libc.a(lib_a-findfp.o)
                0x0000000000001800                _cleanup_r
 .text.__fp_unlock
                0x000000000000180c        0x8 c:/intelfpga_lite/20.1/nios2eds/bin/gnu/h-x86_64-mingw32/bin/../lib/gcc/nios2-elf/10.1.1/../../../../../H-x86_64-mingw32/nios2-elf/lib/mhw-mulx\libc.a(lib_a-findfp.o)
 .text.__sinit.part.0
                0x0000000000001814      0x168 c:/intelfpga_lite/20.1/nios2eds/bin/gnu/h-x86_64-mingw32/bin/../lib/gcc/nios2-elf/10.1.1/../../../../../H-x86_64-mingw32/nios2-elf/lib/mhw-mulx\libc.a(lib_a-findfp.o)
 .text.__sfmoreglue
                0x000000000000197c       0x68 c:/intelfpga_lite/20.1/nios2eds/bin/gnu/h-x86_64-mingw32/bin/../lib/gcc/nios2-elf/10.1.1/../../../../../H-x86_64-mingw32/nios2-elf/lib/mhw-mulx\libc.a(lib_a-findfp.o)
                0x000000000000197c                __sfmoreglue
 .text.__sfp    0x00000000000019e4      0x154 c:/intelfpga_lite/20.1/nios2eds/bin/gnu/h-x86_64-mingw32/bin/../lib/gcc/nios2-elf/10.1.1/../../../../../H-x86_64-mingw32/nios2-elf/lib/mhw-mulx\libc.a(lib_a-findfp.o)
                0x00000000000019e4                __sfp
 .text._cleanup
                0x0000000000001b38       0x14 c:/intelfpga_lite/20.1/nios2eds/bin/gnu/h-x86_64-mingw32/bin/../lib/gcc/nios2-elf/10.1.1/../../../../../H-x86_64-mingw32/nios2-elf/lib/mhw-mulx\libc.a(lib_a-findfp.o)
                0x0000000000001b38                _cleanup
 .text.__sinit  0x0000000000001b4c       0x10 c:/intelfpga_lite/20.1/nios2eds/bin/gnu/h-x86_64-mingw32/bin/../lib/gcc/nios2-elf/10.1.1/../../../../../H-x86_64-mingw32/nios2-elf/lib/mhw-mulx\libc.a(lib_a-findfp.o)
                0x0000000000001b4c                __sinit
 .text.__sfp_lock_acquire
                0x0000000000001b5c        0x4 c:/intelfpga_lite/20.1/nios2eds/bin/gnu/h-x86_64-mingw32/bin/../lib/gcc/nios2-elf/10.1.1/../../../../../H-x86_64-mingw32/nios2-elf/lib/mhw-mulx\libc.a(lib_a-findfp.o)
                0x0000000000001b5c                __sfp_lock_acquire
 .text.__sfp_lock_release
                0x0000000000001b60        0x4 c:/intelfpga_lite/20.1/nios2eds/bin/gnu/h-x86_64-mingw32/bin/../lib/gcc/nios2-elf/10.1.1/../../../../../H-x86_64-mingw32/nios2-elf/lib/mhw-mulx\libc.a(lib_a-findfp.o)
                0x0000000000001b60                __sfp_lock_release
 .text.__sinit_lock_acquire
                0x0000000000001b64        0x4 c:/intelfpga_lite/20.1/nios2eds/bin/gnu/h-x86_64-mingw32/bin/../lib/gcc/nios2-elf/10.1.1/../../../../../H-x86_64-mingw32/nios2-elf/lib/mhw-mulx\libc.a(lib_a-findfp.o)
                0x0000000000001b64                __sinit_lock_acquire
 .text.__sinit_lock_release
                0x0000000000001b68        0x4 c:/intelfpga_lite/20.1/nios2eds/bin/gnu/h-x86_64-mingw32/bin/../lib/gcc/nios2-elf/10.1.1/../../../../../H-x86_64-mingw32/nios2-elf/lib/mhw-mulx\libc.a(lib_a-findfp.o)
                0x0000000000001b68                __sinit_lock_release
 .text.__fp_lock_all
                0x0000000000001b6c       0x14 c:/intelfpga_lite/20.1/nios2eds/bin/gnu/h-x86_64-mingw32/bin/../lib/gcc/nios2-elf/10.1.1/../../../../../H-x86_64-mingw32/nios2-elf/lib/mhw-mulx\libc.a(lib_a-findfp.o)
                0x0000000000001b6c                __fp_lock_all
 .text.__fp_unlock_all
                0x0000000000001b80       0x14 c:/intelfpga_lite/20.1/nios2eds/bin/gnu/h-x86_64-mingw32/bin/../lib/gcc/nios2-elf/10.1.1/../../../../../H-x86_64-mingw32/nios2-elf/lib/mhw-mulx\libc.a(lib_a-findfp.o)
                0x0000000000001b80                __fp_unlock_all
 .text          0x0000000000001b94        0x0 c:/intelfpga_lite/20.1/nios2eds/bin/gnu/h-x86_64-mingw32/bin/../lib/gcc/nios2-elf/10.1.1/../../../../../H-x86_64-mingw32/nios2-elf/lib/mhw-mulx\libc.a(lib_a-fvwrite.o)
 .text.__sfvwrite_r
                0x0000000000001b94      0x4b8 c:/intelfpga_lite/20.1/nios2eds/bin/gnu/h-x86_64-mingw32/bin/../lib/gcc/nios2-elf/10.1.1/../../../../../H-x86_64-mingw32/nios2-elf/lib/mhw-mulx\libc.a(lib_a-fvwrite.o)
                0x0000000000001b94                __sfvwrite_r
 .text          0x000000000000204c        0x0 c:/intelfpga_lite/20.1/nios2eds/bin/gnu/h-x86_64-mingw32/bin/../lib/gcc/nios2-elf/10.1.1/../../../../../H-x86_64-mingw32/nios2-elf/lib/mhw-mulx\libc.a(lib_a-fwalk.o)
 .text._fwalk   0x000000000000204c       0x98 c:/intelfpga_lite/20.1/nios2eds/bin/gnu/h-x86_64-mingw32/bin/../lib/gcc/nios2-elf/10.1.1/../../../../../H-x86_64-mingw32/nios2-elf/lib/mhw-mulx\libc.a(lib_a-fwalk.o)
                0x000000000000204c                _fwalk
 .text._fwalk_reent
                0x00000000000020e4       0xa8 c:/intelfpga_lite/20.1/nios2eds/bin/gnu/h-x86_64-mingw32/bin/../lib/gcc/nios2-elf/10.1.1/../../../../../H-x86_64-mingw32/nios2-elf/lib/mhw-mulx\libc.a(lib_a-fwalk.o)
                0x00000000000020e4                _fwalk_reent
 .text          0x000000000000218c        0x0 c:/intelfpga_lite/20.1/nios2eds/bin/gnu/h-x86_64-mingw32/bin/../lib/gcc/nios2-elf/10.1.1/../../../../../H-x86_64-mingw32/nios2-elf/lib/mhw-mulx\libc.a(lib_a-impure.o)
 .text          0x000000000000218c        0x0 c:/intelfpga_lite/20.1/nios2eds/bin/gnu/h-x86_64-mingw32/bin/../lib/gcc/nios2-elf/10.1.1/../../../../../H-x86_64-mingw32/nios2-elf/lib/mhw-mulx\libc.a(lib_a-mallocr.o)
 .text._malloc_r
                0x000000000000218c      0x7e0 c:/intelfpga_lite/20.1/nios2eds/bin/gnu/h-x86_64-mingw32/bin/../lib/gcc/nios2-elf/10.1.1/../../../../../H-x86_64-mingw32/nios2-elf/lib/mhw-mulx\libc.a(lib_a-mallocr.o)
                0x000000000000218c                _malloc_r
 .text          0x000000000000296c        0x0 c:/intelfpga_lite/20.1/nios2eds/bin/gnu/h-x86_64-mingw32/bin/../lib/gcc/nios2-elf/10.1.1/../../../../../H-x86_64-mingw32/nios2-elf/lib/mhw-mulx\libc.a(lib_a-memchr.o)
 .text.memchr   0x000000000000296c       0xd0 c:/intelfpga_lite/20.1/nios2eds/bin/gnu/h-x86_64-mingw32/bin/../lib/gcc/nios2-elf/10.1.1/../../../../../H-x86_64-mingw32/nios2-elf/lib/mhw-mulx\libc.a(lib_a-memchr.o)
                0x000000000000296c                memchr
 .text          0x0000000000002a3c        0x0 c:/intelfpga_lite/20.1/nios2eds/bin/gnu/h-x86_64-mingw32/bin/../lib/gcc/nios2-elf/10.1.1/../../../../../H-x86_64-mingw32/nios2-elf/lib/mhw-mulx\libc.a(lib_a-memcpy.o)
 .text.memcpy   0x0000000000002a3c      0x100 c:/intelfpga_lite/20.1/nios2eds/bin/gnu/h-x86_64-mingw32/bin/../lib/gcc/nios2-elf/10.1.1/../../../../../H-x86_64-mingw32/nios2-elf/lib/mhw-mulx\libc.a(lib_a-memcpy.o)
                0x0000000000002a3c                memcpy
 .text          0x0000000000002b3c        0x0 c:/intelfpga_lite/20.1/nios2eds/bin/gnu/h-x86_64-mingw32/bin/../lib/gcc/nios2-elf/10.1.1/../../../../../H-x86_64-mingw32/nios2-elf/lib/mhw-mulx\libc.a(lib_a-memmove.o)
 .text.memmove  0x0000000000002b3c      0x12c c:/intelfpga_lite/20.1/nios2eds/bin/gnu/h-x86_64-mingw32/bin/../lib/gcc/nios2-elf/10.1.1/../../../../../H-x86_64-mingw32/nios2-elf/lib/mhw-mulx\libc.a(lib_a-memmove.o)
                0x0000000000002b3c                memmove
 .text          0x0000000000002c68        0x0 c:/intelfpga_lite/20.1/nios2eds/bin/gnu/h-x86_64-mingw32/bin/../lib/gcc/nios2-elf/10.1.1/../../../../../H-x86_64-mingw32/nios2-elf/lib/mhw-mulx\libc.a(lib_a-memset.o)
 .text.memset   0x0000000000002c68       0xf0 c:/intelfpga_lite/20.1/nios2eds/bin/gnu/h-x86_64-mingw32/bin/../lib/gcc/nios2-elf/10.1.1/../../../../../H-x86_64-mingw32/nios2-elf/lib/mhw-mulx\libc.a(lib_a-memset.o)
                0x0000000000002c68                memset
 .text          0x0000000000002d58        0x0 c:/intelfpga_lite/20.1/nios2eds/bin/gnu/h-x86_64-mingw32/bin/../lib/gcc/nios2-elf/10.1.1/../../../../../H-x86_64-mingw32/nios2-elf/lib/mhw-mulx\libc.a(lib_a-reallocr.o)
 .text._realloc_r
                0x0000000000002d58      0x564 c:/intelfpga_lite/20.1/nios2eds/bin/gnu/h-x86_64-mingw32/bin/../lib/gcc/nios2-elf/10.1.1/../../../../../H-x86_64-mingw32/nios2-elf/lib/mhw-mulx\libc.a(lib_a-reallocr.o)
                0x0000000000002d58                _realloc_r
 .text          0x00000000000032bc        0x0 c:/intelfpga_lite/20.1/nios2eds/bin/gnu/h-x86_64-mingw32/bin/../lib/gcc/nios2-elf/10.1.1/../../../../../H-x86_64-mingw32/nios2-elf/lib/mhw-mulx\libc.a(lib_a-sbrkr.o)
 .text._sbrk_r  0x00000000000032bc       0x58 c:/intelfpga_lite/20.1/nios2eds/bin/gnu/h-x86_64-mingw32/bin/../lib/gcc/nios2-elf/10.1.1/../../../../../H-x86_64-mingw32/nios2-elf/lib/mhw-mulx\libc.a(lib_a-sbrkr.o)
                0x00000000000032bc                _sbrk_r
 .text          0x0000000000003314        0x0 c:/intelfpga_lite/20.1/nios2eds/bin/gnu/h-x86_64-mingw32/bin/../lib/gcc/nios2-elf/10.1.1/../../../../../H-x86_64-mingw32/nios2-elf/lib/mhw-mulx\libc.a(lib_a-stdio.o)
 .text.__sread  0x0000000000003314       0x54 c:/intelfpga_lite/20.1/nios2eds/bin/gnu/h-x86_64-mingw32/bin/../lib/gcc/nios2-elf/10.1.1/../../../../../H-x86_64-mingw32/nios2-elf/lib/mhw-mulx\libc.a(lib_a-stdio.o)
                0x0000000000003314                __sread
 .text.__seofread
                0x0000000000003368        0x8 c:/intelfpga_lite/20.1/nios2eds/bin/gnu/h-x86_64-mingw32/bin/../lib/gcc/nios2-elf/10.1.1/../../../../../H-x86_64-mingw32/nios2-elf/lib/mhw-mulx\libc.a(lib_a-stdio.o)
                0x0000000000003368                __seofread
 .text.__swrite
                0x0000000000003370       0x80 c:/intelfpga_lite/20.1/nios2eds/bin/gnu/h-x86_64-mingw32/bin/../lib/gcc/nios2-elf/10.1.1/../../../../../H-x86_64-mingw32/nios2-elf/lib/mhw-mulx\libc.a(lib_a-stdio.o)
                0x0000000000003370                __swrite
 .text.__sseek  0x00000000000033f0       0x5c c:/intelfpga_lite/20.1/nios2eds/bin/gnu/h-x86_64-mingw32/bin/../lib/gcc/nios2-elf/10.1.1/../../../../../H-x86_64-mingw32/nios2-elf/lib/mhw-mulx\libc.a(lib_a-stdio.o)
                0x00000000000033f0                __sseek
 .text.__sclose
                0x000000000000344c        0x8 c:/intelfpga_lite/20.1/nios2eds/bin/gnu/h-x86_64-mingw32/bin/../lib/gcc/nios2-elf/10.1.1/../../../../../H-x86_64-mingw32/nios2-elf/lib/mhw-mulx\libc.a(lib_a-stdio.o)
                0x000000000000344c                __sclose
 .text          0x0000000000003454        0x0 c:/intelfpga_lite/20.1/nios2eds/bin/gnu/h-x86_64-mingw32/bin/../lib/gcc/nios2-elf/10.1.1/../../../../../H-x86_64-mingw32/nios2-elf/lib/mhw-mulx\libc.a(lib_a-writer.o)
 .text._write_r
                0x0000000000003454       0x64 c:/intelfpga_lite/20.1/nios2eds/bin/gnu/h-x86_64-mingw32/bin/../lib/gcc/nios2-elf/10.1.1/../../../../../H-x86_64-mingw32/nios2-elf/lib/mhw-mulx\libc.a(lib_a-writer.o)
                0x0000000000003454                _write_r
 .text          0x00000000000034b8        0x0 c:/intelfpga_lite/20.1/nios2eds/bin/gnu/h-x86_64-mingw32/bin/../lib/gcc/nios2-elf/10.1.1/../../../../../H-x86_64-mingw32/nios2-elf/lib/mhw-mulx\libc.a(lib_a-wsetup.o)
 .text.__swsetup_r
                0x00000000000034b8      0x164 c:/intelfpga_lite/20.1/nios2eds/bin/gnu/h-x86_64-mingw32/bin/../lib/gcc/nios2-elf/10.1.1/../../../../../H-x86_64-mingw32/nios2-elf/lib/mhw-mulx\libc.a(lib_a-wsetup.o)
                0x00000000000034b8                __swsetup_r
 .text          0x000000000000361c        0x0 c:/intelfpga_lite/20.1/nios2eds/bin/gnu/h-x86_64-mingw32/bin/../lib/gcc/nios2-elf/10.1.1/../../../../../H-x86_64-mingw32/nios2-elf/lib/mhw-mulx\libc.a(closer.o)
 .text._close_r
                0x000000000000361c       0x58 c:/intelfpga_lite/20.1/nios2eds/bin/gnu/h-x86_64-mingw32/bin/../lib/gcc/nios2-elf/10.1.1/../../../../../H-x86_64-mingw32/nios2-elf/lib/mhw-mulx\libc.a(closer.o)
                0x000000000000361c                _close_r
 .text          0x0000000000003674        0x0 c:/intelfpga_lite/20.1/nios2eds/bin/gnu/h-x86_64-mingw32/bin/../lib/gcc/nios2-elf/10.1.1/../../../../../H-x86_64-mingw32/nios2-elf/lib/mhw-mulx\libc.a(lib_a-fclose.o)
 .text._fclose_r.part.0
                0x0000000000003674       0xc0 c:/intelfpga_lite/20.1/nios2eds/bin/gnu/h-x86_64-mingw32/bin/../lib/gcc/nios2-elf/10.1.1/../../../../../H-x86_64-mingw32/nios2-elf/lib/mhw-mulx\libc.a(lib_a-fclose.o)
 .text._fclose_r
                0x0000000000003734       0x70 c:/intelfpga_lite/20.1/nios2eds/bin/gnu/h-x86_64-mingw32/bin/../lib/gcc/nios2-elf/10.1.1/../../../../../H-x86_64-mingw32/nios2-elf/lib/mhw-mulx\libc.a(lib_a-fclose.o)
                0x0000000000003734                _fclose_r
 .text.fclose   0x00000000000037a4       0x70 c:/intelfpga_lite/20.1/nios2eds/bin/gnu/h-x86_64-mingw32/bin/../lib/gcc/nios2-elf/10.1.1/../../../../../H-x86_64-mingw32/nios2-elf/lib/mhw-mulx\libc.a(lib_a-fclose.o)
                0x00000000000037a4                fclose
 .text          0x0000000000003814        0x0 c:/intelfpga_lite/20.1/nios2eds/bin/gnu/h-x86_64-mingw32/bin/../lib/gcc/nios2-elf/10.1.1/../../../../../H-x86_64-mingw32/nios2-elf/lib/mhw-mulx\libc.a(lib_a-fflush.o)
 .text.__sflush_r
                0x0000000000003814      0x228 c:/intelfpga_lite/20.1/nios2eds/bin/gnu/h-x86_64-mingw32/bin/../lib/gcc/nios2-elf/10.1.1/../../../../../H-x86_64-mingw32/nios2-elf/lib/mhw-mulx\libc.a(lib_a-fflush.o)
                0x0000000000003814                __sflush_r
 .text._fflush_r
                0x0000000000003a3c       0x60 c:/intelfpga_lite/20.1/nios2eds/bin/gnu/h-x86_64-mingw32/bin/../lib/gcc/nios2-elf/10.1.1/../../../../../H-x86_64-mingw32/nios2-elf/lib/mhw-mulx\libc.a(lib_a-fflush.o)
                0x0000000000003a3c                _fflush_r
 .text.fflush   0x0000000000003a9c       0x84 c:/intelfpga_lite/20.1/nios2eds/bin/gnu/h-x86_64-mingw32/bin/../lib/gcc/nios2-elf/10.1.1/../../../../../H-x86_64-mingw32/nios2-elf/lib/mhw-mulx\libc.a(lib_a-fflush.o)
                0x0000000000003a9c                fflush
 .text          0x0000000000003b20        0x0 c:/intelfpga_lite/20.1/nios2eds/bin/gnu/h-x86_64-mingw32/bin/../lib/gcc/nios2-elf/10.1.1/../../../../../H-x86_64-mingw32/nios2-elf/lib/mhw-mulx\libc.a(lib_a-freer.o)
 .text._malloc_trim_r
                0x0000000000003b20      0x11c c:/intelfpga_lite/20.1/nios2eds/bin/gnu/h-x86_64-mingw32/bin/../lib/gcc/nios2-elf/10.1.1/../../../../../H-x86_64-mingw32/nios2-elf/lib/mhw-mulx\libc.a(lib_a-freer.o)
                0x0000000000003b20                _malloc_trim_r
 .text._free_r  0x0000000000003c3c      0x2fc c:/intelfpga_lite/20.1/nios2eds/bin/gnu/h-x86_64-mingw32/bin/../lib/gcc/nios2-elf/10.1.1/../../../../../H-x86_64-mingw32/nios2-elf/lib/mhw-mulx\libc.a(lib_a-freer.o)
                0x0000000000003c3c                _free_r
 .text          0x0000000000003f38        0x0 c:/intelfpga_lite/20.1/nios2eds/bin/gnu/h-x86_64-mingw32/bin/../lib/gcc/nios2-elf/10.1.1/../../../../../H-x86_64-mingw32/nios2-elf/lib/mhw-mulx\libc.a(lib_a-int_errno.o)
 .text          0x0000000000003f38        0x0 c:/intelfpga_lite/20.1/nios2eds/bin/gnu/h-x86_64-mingw32/bin/../lib/gcc/nios2-elf/10.1.1/../../../../../H-x86_64-mingw32/nios2-elf/lib/mhw-mulx\libc.a(lib_a-lseekr.o)
 .text._lseek_r
                0x0000000000003f38       0x64 c:/intelfpga_lite/20.1/nios2eds/bin/gnu/h-x86_64-mingw32/bin/../lib/gcc/nios2-elf/10.1.1/../../../../../H-x86_64-mingw32/nios2-elf/lib/mhw-mulx\libc.a(lib_a-lseekr.o)
                0x0000000000003f38                _lseek_r
 .text          0x0000000000003f9c        0x0 c:/intelfpga_lite/20.1/nios2eds/bin/gnu/h-x86_64-mingw32/bin/../lib/gcc/nios2-elf/10.1.1/../../../../../H-x86_64-mingw32/nios2-elf/lib/mhw-mulx\libc.a(lib_a-makebuf.o)
 .text.__smakebuf_r
                0x0000000000003f9c      0x1b0 c:/intelfpga_lite/20.1/nios2eds/bin/gnu/h-x86_64-mingw32/bin/../lib/gcc/nios2-elf/10.1.1/../../../../../H-x86_64-mingw32/nios2-elf/lib/mhw-mulx\libc.a(lib_a-makebuf.o)
                0x0000000000003f9c                __smakebuf_r
 .text.__swhatbuf_r
                0x000000000000414c       0x98 c:/intelfpga_lite/20.1/nios2eds/bin/gnu/h-x86_64-mingw32/bin/../lib/gcc/nios2-elf/10.1.1/../../../../../H-x86_64-mingw32/nios2-elf/lib/mhw-mulx\libc.a(lib_a-makebuf.o)
                0x000000000000414c                __swhatbuf_r
 .text          0x00000000000041e4        0x0 c:/intelfpga_lite/20.1/nios2eds/bin/gnu/h-x86_64-mingw32/bin/../lib/gcc/nios2-elf/10.1.1/../../../../../H-x86_64-mingw32/nios2-elf/lib/mhw-mulx\libc.a(lib_a-readr.o)
 .text._read_r  0x00000000000041e4       0x64 c:/intelfpga_lite/20.1/nios2eds/bin/gnu/h-x86_64-mingw32/bin/../lib/gcc/nios2-elf/10.1.1/../../../../../H-x86_64-mingw32/nios2-elf/lib/mhw-mulx\libc.a(lib_a-readr.o)
                0x00000000000041e4                _read_r
 .text          0x0000000000004248        0x0 c:/intelfpga_lite/20.1/nios2eds/bin/gnu/h-x86_64-mingw32/bin/../lib/gcc/nios2-elf/10.1.1/../../../../../H-x86_64-mingw32/nios2-elf/lib/mhw-mulx\libc.a(lib_a-fstatr.o)
 .text._fstat_r
                0x0000000000004248       0x60 c:/intelfpga_lite/20.1/nios2eds/bin/gnu/h-x86_64-mingw32/bin/../lib/gcc/nios2-elf/10.1.1/../../../../../H-x86_64-mingw32/nios2-elf/lib/mhw-mulx\libc.a(lib_a-fstatr.o)
                0x0000000000004248                _fstat_r
 .text          0x00000000000042a8        0x0 c:/intelfpga_lite/20.1/nios2eds/bin/gnu/h-x86_64-mingw32/bin/../lib/gcc/nios2-elf/10.1.1/../../../../../H-x86_64-mingw32/nios2-elf/lib/mhw-mulx\libc.a(lib_a-isattyr.o)
 .text._isatty_r
                0x00000000000042a8       0x58 c:/intelfpga_lite/20.1/nios2eds/bin/gnu/h-x86_64-mingw32/bin/../lib/gcc/nios2-elf/10.1.1/../../../../../H-x86_64-mingw32/nios2-elf/lib/mhw-mulx\libc.a(lib_a-isattyr.o)
                0x00000000000042a8                _isatty_r
 .text          0x0000000000004300      0x1b4 c:/intelfpga_lite/20.1/nios2eds/bin/gnu/h-x86_64-mingw32/bin/../lib/gcc/nios2-elf/10.1.1/mhw-mulx\libgcc.a(lib2-divmod.o)
                0x0000000000004300                __divsi3
                0x0000000000004380                __modsi3
                0x00000000000043f4                __udivsi3
                0x0000000000004458                __umodsi3
 .text          0x00000000000044b4      0x10c c:/users/bdunne/source/lcd_camera_example/lcd_camera_bsp\libhal_bsp.a(alt_close.o)
                0x00000000000044f0                close
 .text          0x00000000000045c0       0x2c c:/users/bdunne/source/lcd_camera_example/lcd_camera_bsp\libhal_bsp.a(alt_dev.o)
 .text          0x00000000000045ec        0x0 c:/users/bdunne/source/lcd_camera_example/lcd_camera_bsp\libhal_bsp.a(alt_errno.o)
 .text          0x00000000000045ec       0xec c:/users/bdunne/source/lcd_camera_example/lcd_camera_bsp\libhal_bsp.a(alt_fstat.o)
                0x0000000000004628                fstat
 .text          0x00000000000046d8       0xe0 c:/users/bdunne/source/lcd_camera_example/lcd_camera_bsp\libhal_bsp.a(alt_isatty.o)
                0x0000000000004714                isatty
 .text          0x00000000000047b8       0xec c:/users/bdunne/source/lcd_camera_example/lcd_camera_bsp\libhal_bsp.a(alt_load.o)
                0x0000000000004820                alt_load
 .text          0x00000000000048a4      0x110 c:/users/bdunne/source/lcd_camera_example/lcd_camera_bsp\libhal_bsp.a(alt_lseek.o)
                0x00000000000048e0                lseek
 .text          0x00000000000049b4       0x7c c:/users/bdunne/source/lcd_camera_example/lcd_camera_bsp\libhal_bsp.a(alt_main.o)
                0x00000000000049b4                alt_main
 .text          0x0000000000004a30       0x48 c:/users/bdunne/source/lcd_camera_example/lcd_camera_bsp\libhal_bsp.a(alt_malloc_lock.o)
                0x0000000000004a30                __malloc_lock
                0x0000000000004a54                __malloc_unlock
 .text          0x0000000000004a78      0x138 c:/users/bdunne/source/lcd_camera_example/lcd_camera_bsp\libhal_bsp.a(alt_read.o)
                0x0000000000004ab4                read
 .text          0x0000000000004bb0       0x58 c:/users/bdunne/source/lcd_camera_example/lcd_camera_bsp\libhal_bsp.a(alt_release_fd.o)
                0x0000000000004bb0                alt_release_fd
 .text          0x0000000000004c08       0xb8 c:/users/bdunne/source/lcd_camera_example/lcd_camera_bsp\libhal_bsp.a(alt_sbrk.o)
                0x0000000000004c08                sbrk
 .text          0x0000000000004cc0      0x134 c:/users/bdunne/source/lcd_camera_example/lcd_camera_bsp\libhal_bsp.a(alt_write.o)
                0x0000000000004cfc                write
 .text          0x0000000000004df4       0xf4 c:/users/bdunne/source/lcd_camera_example/lcd_camera_bsp\libhal_bsp.a(alt_sys_init.o)
                0x0000000000004e28                alt_irq_init
                0x0000000000004e64                alt_sys_init
 .text          0x0000000000004ee8     0x1bf4 c:/users/bdunne/source/lcd_camera_example/lcd_camera_bsp\libhal_bsp.a(altera_avalon_i2c.o)
                0x0000000000004ff8                alt_avalon_i2c_register_optional_irq_handler
                0x00000000000050e8                alt_avalon_i2c_register_callback
                0x000000000000513c                alt_avalon_i2c_init
                0x0000000000005228                alt_avalon_i2c_open
                0x0000000000005268                alt_avalon_i2c_enable
                0x0000000000005300                alt_avalon_i2c_disable
                0x000000000000534c                alt_avalon_i2c_master_config_get
                0x00000000000053fc                alt_avalon_i2c_master_config_set
                0x00000000000054c8                alt_avalon_i2c_master_config_speed_get
                0x000000000000554c                alt_avalon_i2c_master_config_speed_set
                0x0000000000005638                alt_avalon_i2c_is_busy
                0x000000000000567c                alt_avalon_i2c_rx_read_available
                0x0000000000005728                alt_avalon_i2c_rx_read
                0x00000000000057d0                alt_avalon_i2c_cmd_write
                0x00000000000058bc                alt_avalon_i2c_send_address
                0x00000000000059ac                alt_avalon_i2c_master_target_get
                0x00000000000059e4                alt_avalon_i2c_master_target_set
                0x0000000000005a18                alt_avalon_i2c_check_nack
                0x0000000000005a64                alt_avalon_i2c_check_arblost
                0x0000000000005ab0                alt_avalon_i2c_interrupt_transaction_status
                0x0000000000005be4                alt_avalon_i2c_master_tx
                0x0000000000005ccc                alt_avalon_i2c_master_rx
                0x0000000000005e08                alt_avalon_i2c_master_tx_rx
                0x0000000000005fd0                alt_avalon_i2c_master_transmit
                0x000000000000618c                alt_avalon_i2c_master_transmit_using_interrupts
                0x0000000000006394                alt_avalon_i2c_master_receive
                0x00000000000065a0                alt_avalon_i2c_master_receive_using_interrupts
                0x000000000000678c                alt_avalon_i2c_int_status_get
                0x00000000000067e4                alt_avalon_i2c_int_raw_status_get
                0x0000000000006828                alt_avalon_i2c_int_clear
                0x0000000000006864                alt_avalon_i2c_int_disable
                0x00000000000068d0                alt_avalon_i2c_int_enable
                0x0000000000006938                alt_avalon_i2c_enabled_ints_get
                0x000000000000697c                alt_avalon_i2c_rx_fifo_threshold_get
                0x00000000000069c8                alt_avalon_i2c_rx_fifo_threshold_set
                0x0000000000006a2c                alt_avalon_i2c_tfr_cmd_fifo_threshold_get
                0x0000000000006a78                alt_avalon_i2c_tfr_cmd_fifo_threshold_set
 .text          0x0000000000006adc      0x164 c:/users/bdunne/source/lcd_camera_example/lcd_camera_bsp\libhal_bsp.a(altera_avalon_jtag_uart_fd.o)
                0x0000000000006adc                altera_avalon_jtag_uart_read_fd
                0x0000000000006b3c                altera_avalon_jtag_uart_write_fd
                0x0000000000006b9c                altera_avalon_jtag_uart_close_fd
                0x0000000000006bec                altera_avalon_jtag_uart_ioctl_fd
 .text          0x0000000000006c40      0x3d4 c:/users/bdunne/source/lcd_camera_example/lcd_camera_bsp\libhal_bsp.a(altera_avalon_jtag_uart_init.o)
                0x0000000000006c40                altera_avalon_jtag_uart_init
                0x0000000000006fac                altera_avalon_jtag_uart_close
 .text          0x0000000000007014       0xf4 c:/users/bdunne/source/lcd_camera_example/lcd_camera_bsp\libhal_bsp.a(altera_avalon_jtag_uart_ioctl.o)
                0x0000000000007014                altera_avalon_jtag_uart_ioctl
 .text          0x0000000000007108      0x220 c:/users/bdunne/source/lcd_camera_example/lcd_camera_bsp\libhal_bsp.a(altera_avalon_jtag_uart_read.o)
                0x0000000000007108                altera_avalon_jtag_uart_read
 .text          0x0000000000007328      0x228 c:/users/bdunne/source/lcd_camera_example/lcd_camera_bsp\libhal_bsp.a(altera_avalon_jtag_uart_write.o)
                0x0000000000007328                altera_avalon_jtag_uart_write
 .text          0x0000000000007550      0x100 c:/users/bdunne/source/lcd_camera_example/lcd_camera_bsp\libhal_bsp.a(altera_avalon_timer_sc.o)
                0x00000000000075cc                alt_avalon_timer_sc_init
 .text          0x0000000000007650      0x4c0 c:/users/bdunne/source/lcd_camera_example/lcd_camera_bsp\libhal_bsp.a(dma_avalon_st_sink_to_mm_master.o)
                0x0000000000007784                dma_s2m_init
                0x00000000000077e8                dma_s2m_open
                0x0000000000007824                dma_s2m_close
                0x0000000000007890                dma_s2m_register_fc_callback
                0x00000000000078f8                dma_s2m_register_oe_callback
                0x0000000000007960                dma_s2m_unregister_fc_callback
                0x00000000000079b4                dma_s2m_unregister_oe_callback
                0x0000000000007a08                dma_s2m_set_base_addr
                0x0000000000007a48                dma_s2m_enable_stream
                0x0000000000007a90                dma_s2m_disable_stream
                0x0000000000007adc                dma_s2m_get_status
 .text          0x0000000000007b10      0x178 c:/users/bdunne/source/lcd_camera_example/lcd_camera_bsp\libhal_bsp.a(lcd8080.o)
                0x0000000000007b10                lcd8080_init
                0x0000000000007bd0                lcd8080_open
                0x0000000000007c0c                lcd8080_write
 .text          0x0000000000007c88      0x134 c:/users/bdunne/source/lcd_camera_example/lcd_camera_bsp\libhal_bsp.a(alt_alarm_start.o)
                0x0000000000007c88                alt_alarm_start
 .text          0x0000000000007dbc      0x128 c:/users/bdunne/source/lcd_camera_example/lcd_camera_bsp\libhal_bsp.a(alt_busy_sleep.o)
                0x0000000000007dbc                alt_busy_sleep
 .text          0x0000000000007ee4       0x20 c:/users/bdunne/source/lcd_camera_example/lcd_camera_bsp\libhal_bsp.a(alt_dcache_flush_all.o)
                0x0000000000007ee4                alt_dcache_flush_all
 .text          0x0000000000007f04       0xe4 c:/users/bdunne/source/lcd_camera_example/lcd_camera_bsp\libhal_bsp.a(alt_dev_llist_insert.o)
                0x0000000000007f40                alt_dev_llist_insert
 .text          0x0000000000007fe8       0x64 c:/users/bdunne/source/lcd_camera_example/lcd_camera_bsp\libhal_bsp.a(alt_do_ctors.o)
                0x0000000000007fe8                _do_ctors
 .text          0x000000000000804c       0x64 c:/users/bdunne/source/lcd_camera_example/lcd_camera_bsp\libhal_bsp.a(alt_do_dtors.o)
                0x000000000000804c                _do_dtors
 .text          0x00000000000080b0       0x90 c:/users/bdunne/source/lcd_camera_example/lcd_camera_bsp\libhal_bsp.a(alt_find_dev.o)
                0x00000000000080b0                alt_find_dev
 .text          0x0000000000008140       0x34 c:/users/bdunne/source/lcd_camera_example/lcd_camera_bsp\libhal_bsp.a(alt_icache_flush_all.o)
                0x0000000000008140                alt_icache_flush_all
 .text          0x0000000000008174      0x1b0 c:/users/bdunne/source/lcd_camera_example/lcd_camera_bsp\libhal_bsp.a(alt_iic.o)
                0x0000000000008174                alt_ic_isr_register
                0x00000000000081c4                alt_ic_irq_enable
                0x000000000000824c                alt_ic_irq_disable
                0x00000000000082d8                alt_ic_irq_enabled
 .text          0x0000000000008324       0xe8 c:/users/bdunne/source/lcd_camera_example/lcd_camera_bsp\libhal_bsp.a(alt_iic_isr_register.o)
                0x0000000000008324                alt_iic_isr_register
 .text          0x000000000000840c      0x12c c:/users/bdunne/source/lcd_camera_example/lcd_camera_bsp\libhal_bsp.a(alt_io_redirect.o)
                0x00000000000084bc                alt_io_redirect
 .text          0x0000000000008538        0x0 c:/users/bdunne/source/lcd_camera_example/lcd_camera_bsp\libhal_bsp.a(alt_irq_entry.o)
 .text          0x0000000000008538        0x0 c:/users/bdunne/source/lcd_camera_example/lcd_camera_bsp\libhal_bsp.a(alt_irq_handler.o)
 .text          0x0000000000008538        0x0 c:/users/bdunne/source/lcd_camera_example/lcd_camera_bsp\libhal_bsp.a(alt_irq_vars.o)
 .text          0x0000000000008538      0x248 c:/users/bdunne/source/lcd_camera_example/lcd_camera_bsp\libhal_bsp.a(alt_open.o)
                0x000000000000862c                open
 .text          0x0000000000008780      0x22c c:/users/bdunne/source/lcd_camera_example/lcd_camera_bsp\libhal_bsp.a(alt_printf.o)
                0x0000000000008780                alt_printf
 .text          0x00000000000089ac       0x30 c:/users/bdunne/source/lcd_camera_example/lcd_camera_bsp\libhal_bsp.a(alt_putchar.o)
                0x00000000000089ac                alt_putchar
 .text          0x00000000000089dc      0x1ac c:/users/bdunne/source/lcd_camera_example/lcd_camera_bsp\libhal_bsp.a(alt_tick.o)
                0x00000000000089dc                alt_alarm_stop
                0x0000000000008a80                alt_tick
 .text          0x0000000000008b88       0x24 c:/users/bdunne/source/lcd_camera_example/lcd_camera_bsp\libhal_bsp.a(altera_nios2_gen2_irq.o)
                0x0000000000008b88                altera_nios2_gen2_irq_init
 .text          0x0000000000008bac        0x0 c:/users/bdunne/source/lcd_camera_example/lcd_camera_bsp\libhal_bsp.a(alt_exception_entry.o)
 .text          0x0000000000008bac      0x108 c:/users/bdunne/source/lcd_camera_example/lcd_camera_bsp\libhal_bsp.a(alt_find_file.o)
                0x0000000000008bac                alt_find_file
 .text          0x0000000000008cb4       0xa0 c:/users/bdunne/source/lcd_camera_example/lcd_camera_bsp\libhal_bsp.a(alt_get_fd.o)
                0x0000000000008cb4                alt_get_fd
 .text          0x0000000000008d54       0x90 c:/users/bdunne/source/lcd_camera_example/lcd_camera_bsp\libhal_bsp.a(alt_icache_flush.o)
                0x0000000000008d54                alt_icache_flush
 .text          0x0000000000008de4       0x98 c:/users/bdunne/source/lcd_camera_example/lcd_camera_bsp\libhal_bsp.a(alt_instruction_exception_entry.o)
                0x0000000000008de4                alt_exception_cause_generated_bad_addr
 .text          0x0000000000008e7c        0x0 c:/intelfpga_lite/20.1/nios2eds/bin/gnu/h-x86_64-mingw32/bin/../lib/gcc/nios2-elf/10.1.1/../../../../../H-x86_64-mingw32/nios2-elf/lib/mhw-mulx\libc.a(lib_a-atexit.o)
 .text.atexit   0x0000000000008e7c       0x14 c:/intelfpga_lite/20.1/nios2eds/bin/gnu/h-x86_64-mingw32/bin/../lib/gcc/nios2-elf/10.1.1/../../../../../H-x86_64-mingw32/nios2-elf/lib/mhw-mulx\libc.a(lib_a-atexit.o)
                0x0000000000008e7c                atexit
 .text          0x0000000000008e90        0x0 c:/intelfpga_lite/20.1/nios2eds/bin/gnu/h-x86_64-mingw32/bin/../lib/gcc/nios2-elf/10.1.1/../../../../../H-x86_64-mingw32/nios2-elf/lib/mhw-mulx\libc.a(lib_a-exit.o)
 .text.exit     0x0000000000008e90       0x34 c:/intelfpga_lite/20.1/nios2eds/bin/gnu/h-x86_64-mingw32/bin/../lib/gcc/nios2-elf/10.1.1/../../../../../H-x86_64-mingw32/nios2-elf/lib/mhw-mulx\libc.a(lib_a-exit.o)
                0x0000000000008e90                exit
 .text          0x0000000000008ec4        0x0 c:/intelfpga_lite/20.1/nios2eds/bin/gnu/h-x86_64-mingw32/bin/../lib/gcc/nios2-elf/10.1.1/../../../../../H-x86_64-mingw32/nios2-elf/lib/mhw-mulx\libc.a(lib_a-memcmp.o)
 .text.memcmp   0x0000000000008ec4       0x78 c:/intelfpga_lite/20.1/nios2eds/bin/gnu/h-x86_64-mingw32/bin/../lib/gcc/nios2-elf/10.1.1/../../../../../H-x86_64-mingw32/nios2-elf/lib/mhw-mulx\libc.a(lib_a-memcmp.o)
                0x0000000000008ec4                memcmp
 .text          0x0000000000008f3c        0x0 c:/intelfpga_lite/20.1/nios2eds/bin/gnu/h-x86_64-mingw32/bin/../lib/gcc/nios2-elf/10.1.1/../../../../../H-x86_64-mingw32/nios2-elf/lib/mhw-mulx\libc.a(lib_a-putchar.o)
 .text._putchar_r
                0x0000000000008f3c        0x8 c:/intelfpga_lite/20.1/nios2eds/bin/gnu/h-x86_64-mingw32/bin/../lib/gcc/nios2-elf/10.1.1/../../../../../H-x86_64-mingw32/nios2-elf/lib/mhw-mulx\libc.a(lib_a-putchar.o)
                0x0000000000008f3c                _putchar_r
 .text.putchar  0x0000000000008f44       0x18 c:/intelfpga_lite/20.1/nios2eds/bin/gnu/h-x86_64-mingw32/bin/../lib/gcc/nios2-elf/10.1.1/../../../../../H-x86_64-mingw32/nios2-elf/lib/mhw-mulx\libc.a(lib_a-putchar.o)
                0x0000000000008f44                putchar
 .text          0x0000000000008f5c        0x0 c:/intelfpga_lite/20.1/nios2eds/bin/gnu/h-x86_64-mingw32/bin/../lib/gcc/nios2-elf/10.1.1/../../../../../H-x86_64-mingw32/nios2-elf/lib/mhw-mulx\libc.a(lib_a-__atexit.o)
 .text.__register_exitproc
                0x0000000000008f5c       0x90 c:/intelfpga_lite/20.1/nios2eds/bin/gnu/h-x86_64-mingw32/bin/../lib/gcc/nios2-elf/10.1.1/../../../../../H-x86_64-mingw32/nios2-elf/lib/mhw-mulx\libc.a(lib_a-__atexit.o)
                0x0000000000008f5c                __register_exitproc
 .text          0x0000000000008fec        0x0 c:/intelfpga_lite/20.1/nios2eds/bin/gnu/h-x86_64-mingw32/bin/../lib/gcc/nios2-elf/10.1.1/../../../../../H-x86_64-mingw32/nios2-elf/lib/mhw-mulx\libc.a(lib_a-__call_atexit.o)
 .text.__call_exitprocs
                0x0000000000008fec      0x120 c:/intelfpga_lite/20.1/nios2eds/bin/gnu/h-x86_64-mingw32/bin/../lib/gcc/nios2-elf/10.1.1/../../../../../H-x86_64-mingw32/nios2-elf/lib/mhw-mulx\libc.a(lib_a-__call_atexit.o)
                0x0000000000008fec                __call_exitprocs
 .text          0x000000000000910c        0x0 c:/intelfpga_lite/20.1/nios2eds/bin/gnu/h-x86_64-mingw32/bin/../lib/gcc/nios2-elf/10.1.1/../../../../../H-x86_64-mingw32/nios2-elf/lib/mhw-mulx\libc.a(lib_a-putc.o)
 .text._putc_r  0x000000000000910c       0xcc c:/intelfpga_lite/20.1/nios2eds/bin/gnu/h-x86_64-mingw32/bin/../lib/gcc/nios2-elf/10.1.1/../../../../../H-x86_64-mingw32/nios2-elf/lib/mhw-mulx\libc.a(lib_a-putc.o)
                0x000000000000910c                _putc_r
 .text.putc     0x00000000000091d8       0xe0 c:/intelfpga_lite/20.1/nios2eds/bin/gnu/h-x86_64-mingw32/bin/../lib/gcc/nios2-elf/10.1.1/../../../../../H-x86_64-mingw32/nios2-elf/lib/mhw-mulx\libc.a(lib_a-putc.o)
                0x00000000000091d8                putc
 .text          0x00000000000092b8        0x0 c:/intelfpga_lite/20.1/nios2eds/bin/gnu/h-x86_64-mingw32/bin/../lib/gcc/nios2-elf/10.1.1/../../../../../H-x86_64-mingw32/nios2-elf/lib/mhw-mulx\libc.a(lib_a-wbuf.o)
 .text.__swbuf_r
                0x00000000000092b8      0x148 c:/intelfpga_lite/20.1/nios2eds/bin/gnu/h-x86_64-mingw32/bin/../lib/gcc/nios2-elf/10.1.1/../../../../../H-x86_64-mingw32/nios2-elf/lib/mhw-mulx\libc.a(lib_a-wbuf.o)
                0x00000000000092b8                __swbuf_r
 .text.__swbuf  0x0000000000009400       0x18 c:/intelfpga_lite/20.1/nios2eds/bin/gnu/h-x86_64-mingw32/bin/../lib/gcc/nios2-elf/10.1.1/../../../../../H-x86_64-mingw32/nios2-elf/lib/mhw-mulx\libc.a(lib_a-wbuf.o)
                0x0000000000009400                __swbuf
 .text          0x0000000000009418       0x38 c:/users/bdunne/source/lcd_camera_example/lcd_camera_bsp\libhal_bsp.a(alt_exit.o)
                0x0000000000009418                _exit
 *(.gnu.warning.*)
 *(.fini)
                [!provide]                        PROVIDE (__etext = ABSOLUTE (.))
                [!provide]                        PROVIDE (_etext = ABSOLUTE (.))
                [!provide]                        PROVIDE (etext = ABSOLUTE (.))
 *(.eh_frame_hdr)
                0x0000000000009450                . = ALIGN (0x4)
                [!provide]                        PROVIDE (__preinit_array_start = ABSOLUTE (.))
 *(.preinit_array)
                [!provide]                        PROVIDE (__preinit_array_end = ABSOLUTE (.))
                [!provide]                        PROVIDE (__init_array_start = ABSOLUTE (.))
 *(.init_array)
                [!provide]                        PROVIDE (__init_array_end = ABSOLUTE (.))
                [!provide]                        PROVIDE (__fini_array_start = ABSOLUTE (.))
 *(.fini_array)
                [!provide]                        PROVIDE (__fini_array_end = ABSOLUTE (.))
 *(.eh_frame)
 *(.gcc_except_table .gcc_except_table.*)
 *(.dynamic)
                0x0000000000009450                PROVIDE (__CTOR_LIST__ = ABSOLUTE (.))
 *(.ctors)
 *(SORT_BY_NAME(.ctors.*))
                0x0000000000009450                PROVIDE (__CTOR_END__ = ABSOLUTE (.))
                0x0000000000009450                PROVIDE (__DTOR_LIST__ = ABSOLUTE (.))
 *(.dtors)
 *(SORT_BY_NAME(.dtors.*))
                0x0000000000009450                PROVIDE (__DTOR_END__ = ABSOLUTE (.))
 *(.jcr)
                0x0000000000009450                . = ALIGN (0x4)

.rodata         0x0000000000009450      0x248
                0x0000000000009450                PROVIDE (__ram_rodata_start = ABSOLUTE (.))
                0x0000000000009450                . = ALIGN (0x4)
 *(.rodata .rodata.* .gnu.linkonce.r.*)
 .rodata        0x0000000000009450       0x65 obj/default/camera.o
 *fill*         0x00000000000094b5        0x3 
 .rodata        0x00000000000094b8       0x4b obj/default/main.o
 *fill*         0x0000000000009503        0x1 
 .rodata        0x0000000000009504      0x100 c:/intelfpga_lite/20.1/nios2eds/bin/gnu/h-x86_64-mingw32/bin/../lib/gcc/nios2-elf/10.1.1/mhw-mulx\libgcc.a(_clz.o)
                0x0000000000009504                __clz_tab
 .rodata._puts_r.str1.4
                0x0000000000009604        0x2 c:/intelfpga_lite/20.1/nios2eds/bin/gnu/h-x86_64-mingw32/bin/../lib/gcc/nios2-elf/10.1.1/../../../../../H-x86_64-mingw32/nios2-elf/lib/mhw-mulx\libc.a(lib_a-puts.o)
 *fill*         0x0000000000009606        0x2 
 .rodata        0x0000000000009608        0xa c:/users/bdunne/source/lcd_camera_example/lcd_camera_bsp\libhal_bsp.a(alt_dev.o)
 *fill*         0x0000000000009612        0x2 
 .rodata        0x0000000000009614        0xf c:/users/bdunne/source/lcd_camera_example/lcd_camera_bsp\libhal_bsp.a(alt_main.o)
 *fill*         0x0000000000009623        0x1 
 .rodata        0x0000000000009624       0x51 c:/users/bdunne/source/lcd_camera_example/lcd_camera_bsp\libhal_bsp.a(alt_sys_init.o)
 *fill*         0x0000000000009675        0x3 
 .rodata        0x0000000000009678       0x1d c:/users/bdunne/source/lcd_camera_example/lcd_camera_bsp\libhal_bsp.a(altera_avalon_i2c.o)
 *(.rodata1)
                0x0000000000009698                . = ALIGN (0x4)
 *fill*         0x0000000000009695        0x3 
                0x0000000000009698                PROVIDE (__ram_rodata_end = ABSOLUTE (.))
                0x0000000000009450                PROVIDE (__flash_rodata_start = LOADADDR (.rodata))

.rwdata         0x0000000000009698     0x1afc load address 0x000000000000b194
                0x0000000000009698                PROVIDE (__ram_rwdata_start = ABSOLUTE (.))
                0x0000000000009698                . = ALIGN (0x4)
 *(.got.plt)
 *(.got)
 *(.data1)
 *(.data .data.* .gnu.linkonce.d.*)
 .data          0x0000000000009698        0x0 c:/users/bdunne/source/lcd_camera_example/lcd_camera_bsp/obj/HAL/src/crt0.o
 .data          0x0000000000009698        0x0 obj/default/camera.o
 .data          0x0000000000009698        0x0 obj/default/main.o
 .data          0x0000000000009698        0x0 c:/intelfpga_lite/20.1/nios2eds/bin/gnu/h-x86_64-mingw32/bin/../lib/gcc/nios2-elf/10.1.1/mhw-mulx\libgcc.a(_fixunssfsi.o)
 .data          0x0000000000009698        0x0 c:/intelfpga_lite/20.1/nios2eds/bin/gnu/h-x86_64-mingw32/bin/../lib/gcc/nios2-elf/10.1.1/mhw-mulx\libgcc.a(gesf2.o)
 .data          0x0000000000009698        0x0 c:/intelfpga_lite/20.1/nios2eds/bin/gnu/h-x86_64-mingw32/bin/../lib/gcc/nios2-elf/10.1.1/mhw-mulx\libgcc.a(subsf3.o)
 .data          0x0000000000009698        0x0 c:/intelfpga_lite/20.1/nios2eds/bin/gnu/h-x86_64-mingw32/bin/../lib/gcc/nios2-elf/10.1.1/mhw-mulx\libgcc.a(fixsfsi.o)
 .data          0x0000000000009698        0x0 c:/intelfpga_lite/20.1/nios2eds/bin/gnu/h-x86_64-mingw32/bin/../lib/gcc/nios2-elf/10.1.1/mhw-mulx\libgcc.a(floatsisf.o)
 .data          0x0000000000009698        0x0 c:/intelfpga_lite/20.1/nios2eds/bin/gnu/h-x86_64-mingw32/bin/../lib/gcc/nios2-elf/10.1.1/mhw-mulx\libgcc.a(_clzsi2.o)
 .data          0x0000000000009698        0x0 c:/intelfpga_lite/20.1/nios2eds/bin/gnu/h-x86_64-mingw32/bin/../lib/gcc/nios2-elf/10.1.1/mhw-mulx\libgcc.a(_clz.o)
 .data          0x0000000000009698        0x0 c:/intelfpga_lite/20.1/nios2eds/bin/gnu/h-x86_64-mingw32/bin/../lib/gcc/nios2-elf/10.1.1/../../../../../H-x86_64-mingw32/nios2-elf/lib/mhw-mulx\libc.a(lib_a-puts.o)
 .data          0x0000000000009698        0x0 c:/intelfpga_lite/20.1/nios2eds/bin/gnu/h-x86_64-mingw32/bin/../lib/gcc/nios2-elf/10.1.1/../../../../../H-x86_64-mingw32/nios2-elf/lib/mhw-mulx\libc.a(lib_a-strlen.o)
 .data          0x0000000000009698        0x0 c:/intelfpga_lite/20.1/nios2eds/bin/gnu/h-x86_64-mingw32/bin/../lib/gcc/nios2-elf/10.1.1/../../../../../H-x86_64-mingw32/nios2-elf/lib/mhw-mulx\libc.a(lib_a-findfp.o)
 .data          0x0000000000009698        0x0 c:/intelfpga_lite/20.1/nios2eds/bin/gnu/h-x86_64-mingw32/bin/../lib/gcc/nios2-elf/10.1.1/../../../../../H-x86_64-mingw32/nios2-elf/lib/mhw-mulx\libc.a(lib_a-fvwrite.o)
 .data          0x0000000000009698        0x0 c:/intelfpga_lite/20.1/nios2eds/bin/gnu/h-x86_64-mingw32/bin/../lib/gcc/nios2-elf/10.1.1/../../../../../H-x86_64-mingw32/nios2-elf/lib/mhw-mulx\libc.a(lib_a-fwalk.o)
 .data          0x0000000000009698        0x0 c:/intelfpga_lite/20.1/nios2eds/bin/gnu/h-x86_64-mingw32/bin/../lib/gcc/nios2-elf/10.1.1/../../../../../H-x86_64-mingw32/nios2-elf/lib/mhw-mulx\libc.a(lib_a-impure.o)
 .data.impure_data
                0x0000000000009698      0x424 c:/intelfpga_lite/20.1/nios2eds/bin/gnu/h-x86_64-mingw32/bin/../lib/gcc/nios2-elf/10.1.1/../../../../../H-x86_64-mingw32/nios2-elf/lib/mhw-mulx\libc.a(lib_a-impure.o)
 .data          0x0000000000009abc        0x0 c:/intelfpga_lite/20.1/nios2eds/bin/gnu/h-x86_64-mingw32/bin/../lib/gcc/nios2-elf/10.1.1/../../../../../H-x86_64-mingw32/nios2-elf/lib/mhw-mulx\libc.a(lib_a-mallocr.o)
 .data.__malloc_av_
                0x0000000000009abc      0x408 c:/intelfpga_lite/20.1/nios2eds/bin/gnu/h-x86_64-mingw32/bin/../lib/gcc/nios2-elf/10.1.1/../../../../../H-x86_64-mingw32/nios2-elf/lib/mhw-mulx\libc.a(lib_a-mallocr.o)
                0x0000000000009abc                __malloc_av_
 .data          0x0000000000009ec4        0x0 c:/intelfpga_lite/20.1/nios2eds/bin/gnu/h-x86_64-mingw32/bin/../lib/gcc/nios2-elf/10.1.1/../../../../../H-x86_64-mingw32/nios2-elf/lib/mhw-mulx\libc.a(lib_a-memchr.o)
 .data          0x0000000000009ec4        0x0 c:/intelfpga_lite/20.1/nios2eds/bin/gnu/h-x86_64-mingw32/bin/../lib/gcc/nios2-elf/10.1.1/../../../../../H-x86_64-mingw32/nios2-elf/lib/mhw-mulx\libc.a(lib_a-memcpy.o)
 .data          0x0000000000009ec4        0x0 c:/intelfpga_lite/20.1/nios2eds/bin/gnu/h-x86_64-mingw32/bin/../lib/gcc/nios2-elf/10.1.1/../../../../../H-x86_64-mingw32/nios2-elf/lib/mhw-mulx\libc.a(lib_a-memmove.o)
 .data          0x0000000000009ec4        0x0 c:/intelfpga_lite/20.1/nios2eds/bin/gnu/h-x86_64-mingw32/bin/../lib/gcc/nios2-elf/10.1.1/../../../../../H-x86_64-mingw32/nios2-elf/lib/mhw-mulx\libc.a(lib_a-memset.o)
 .data          0x0000000000009ec4        0x0 c:/intelfpga_lite/20.1/nios2eds/bin/gnu/h-x86_64-mingw32/bin/../lib/gcc/nios2-elf/10.1.1/../../../../../H-x86_64-mingw32/nios2-elf/lib/mhw-mulx\libc.a(lib_a-reallocr.o)
 .data          0x0000000000009ec4        0x0 c:/intelfpga_lite/20.1/nios2eds/bin/gnu/h-x86_64-mingw32/bin/../lib/gcc/nios2-elf/10.1.1/../../../../../H-x86_64-mingw32/nios2-elf/lib/mhw-mulx\libc.a(lib_a-sbrkr.o)
 .data          0x0000000000009ec4        0x0 c:/intelfpga_lite/20.1/nios2eds/bin/gnu/h-x86_64-mingw32/bin/../lib/gcc/nios2-elf/10.1.1/../../../../../H-x86_64-mingw32/nios2-elf/lib/mhw-mulx\libc.a(lib_a-stdio.o)
 .data          0x0000000000009ec4        0x0 c:/intelfpga_lite/20.1/nios2eds/bin/gnu/h-x86_64-mingw32/bin/../lib/gcc/nios2-elf/10.1.1/../../../../../H-x86_64-mingw32/nios2-elf/lib/mhw-mulx\libc.a(lib_a-writer.o)
 .data          0x0000000000009ec4        0x0 c:/intelfpga_lite/20.1/nios2eds/bin/gnu/h-x86_64-mingw32/bin/../lib/gcc/nios2-elf/10.1.1/../../../../../H-x86_64-mingw32/nios2-elf/lib/mhw-mulx\libc.a(lib_a-wsetup.o)
 .data          0x0000000000009ec4        0x0 c:/intelfpga_lite/20.1/nios2eds/bin/gnu/h-x86_64-mingw32/bin/../lib/gcc/nios2-elf/10.1.1/../../../../../H-x86_64-mingw32/nios2-elf/lib/mhw-mulx\libc.a(closer.o)
 .data          0x0000000000009ec4        0x0 c:/intelfpga_lite/20.1/nios2eds/bin/gnu/h-x86_64-mingw32/bin/../lib/gcc/nios2-elf/10.1.1/../../../../../H-x86_64-mingw32/nios2-elf/lib/mhw-mulx\libc.a(lib_a-fclose.o)
 .data          0x0000000000009ec4        0x0 c:/intelfpga_lite/20.1/nios2eds/bin/gnu/h-x86_64-mingw32/bin/../lib/gcc/nios2-elf/10.1.1/../../../../../H-x86_64-mingw32/nios2-elf/lib/mhw-mulx\libc.a(lib_a-fflush.o)
 .data          0x0000000000009ec4        0x0 c:/intelfpga_lite/20.1/nios2eds/bin/gnu/h-x86_64-mingw32/bin/../lib/gcc/nios2-elf/10.1.1/../../../../../H-x86_64-mingw32/nios2-elf/lib/mhw-mulx\libc.a(lib_a-freer.o)
 .data          0x0000000000009ec4        0x0 c:/intelfpga_lite/20.1/nios2eds/bin/gnu/h-x86_64-mingw32/bin/../lib/gcc/nios2-elf/10.1.1/../../../../../H-x86_64-mingw32/nios2-elf/lib/mhw-mulx\libc.a(lib_a-int_errno.o)
 .data          0x0000000000009ec4        0x0 c:/intelfpga_lite/20.1/nios2eds/bin/gnu/h-x86_64-mingw32/bin/../lib/gcc/nios2-elf/10.1.1/../../../../../H-x86_64-mingw32/nios2-elf/lib/mhw-mulx\libc.a(lib_a-lseekr.o)
 .data          0x0000000000009ec4        0x0 c:/intelfpga_lite/20.1/nios2eds/bin/gnu/h-x86_64-mingw32/bin/../lib/gcc/nios2-elf/10.1.1/../../../../../H-x86_64-mingw32/nios2-elf/lib/mhw-mulx\libc.a(lib_a-makebuf.o)
 .data          0x0000000000009ec4        0x0 c:/intelfpga_lite/20.1/nios2eds/bin/gnu/h-x86_64-mingw32/bin/../lib/gcc/nios2-elf/10.1.1/../../../../../H-x86_64-mingw32/nios2-elf/lib/mhw-mulx\libc.a(lib_a-readr.o)
 .data          0x0000000000009ec4        0x0 c:/intelfpga_lite/20.1/nios2eds/bin/gnu/h-x86_64-mingw32/bin/../lib/gcc/nios2-elf/10.1.1/../../../../../H-x86_64-mingw32/nios2-elf/lib/mhw-mulx\libc.a(lib_a-fstatr.o)
 .data          0x0000000000009ec4        0x0 c:/intelfpga_lite/20.1/nios2eds/bin/gnu/h-x86_64-mingw32/bin/../lib/gcc/nios2-elf/10.1.1/../../../../../H-x86_64-mingw32/nios2-elf/lib/mhw-mulx\libc.a(lib_a-isattyr.o)
 .data          0x0000000000009ec4        0x0 c:/intelfpga_lite/20.1/nios2eds/bin/gnu/h-x86_64-mingw32/bin/../lib/gcc/nios2-elf/10.1.1/mhw-mulx\libgcc.a(lib2-divmod.o)
 .data          0x0000000000009ec4        0x0 c:/users/bdunne/source/lcd_camera_example/lcd_camera_bsp\libhal_bsp.a(alt_close.o)
 .data          0x0000000000009ec4      0x1a8 c:/users/bdunne/source/lcd_camera_example/lcd_camera_bsp\libhal_bsp.a(alt_dev.o)
                0x0000000000009ec4                alt_dev_null
                0x0000000000009eec                alt_fd_list
 .data          0x000000000000a06c        0x0 c:/users/bdunne/source/lcd_camera_example/lcd_camera_bsp\libhal_bsp.a(alt_errno.o)
 .data          0x000000000000a06c        0x0 c:/users/bdunne/source/lcd_camera_example/lcd_camera_bsp\libhal_bsp.a(alt_fstat.o)
 .data          0x000000000000a06c        0x0 c:/users/bdunne/source/lcd_camera_example/lcd_camera_bsp\libhal_bsp.a(alt_isatty.o)
 .data          0x000000000000a06c        0x0 c:/users/bdunne/source/lcd_camera_example/lcd_camera_bsp\libhal_bsp.a(alt_load.o)
 .data          0x000000000000a06c        0x0 c:/users/bdunne/source/lcd_camera_example/lcd_camera_bsp\libhal_bsp.a(alt_lseek.o)
 .data          0x000000000000a06c        0x0 c:/users/bdunne/source/lcd_camera_example/lcd_camera_bsp\libhal_bsp.a(alt_main.o)
 .data          0x000000000000a06c        0x0 c:/users/bdunne/source/lcd_camera_example/lcd_camera_bsp\libhal_bsp.a(alt_malloc_lock.o)
 .data          0x000000000000a06c        0x0 c:/users/bdunne/source/lcd_camera_example/lcd_camera_bsp\libhal_bsp.a(alt_read.o)
 .data          0x000000000000a06c        0x0 c:/users/bdunne/source/lcd_camera_example/lcd_camera_bsp\libhal_bsp.a(alt_release_fd.o)
 .data          0x000000000000a06c        0x0 c:/users/bdunne/source/lcd_camera_example/lcd_camera_bsp\libhal_bsp.a(alt_sbrk.o)
 .data          0x000000000000a06c        0x0 c:/users/bdunne/source/lcd_camera_example/lcd_camera_bsp\libhal_bsp.a(alt_write.o)
 .data          0x000000000000a06c     0x10d0 c:/users/bdunne/source/lcd_camera_example/lcd_camera_bsp\libhal_bsp.a(alt_sys_init.o)
 .data          0x000000000000b13c        0x0 c:/users/bdunne/source/lcd_camera_example/lcd_camera_bsp\libhal_bsp.a(altera_avalon_i2c.o)
 .data          0x000000000000b13c        0x0 c:/users/bdunne/source/lcd_camera_example/lcd_camera_bsp\libhal_bsp.a(altera_avalon_jtag_uart_fd.o)
 .data          0x000000000000b13c        0x0 c:/users/bdunne/source/lcd_camera_example/lcd_camera_bsp\libhal_bsp.a(altera_avalon_jtag_uart_init.o)
 .data          0x000000000000b13c        0x0 c:/users/bdunne/source/lcd_camera_example/lcd_camera_bsp\libhal_bsp.a(altera_avalon_jtag_uart_ioctl.o)
 .data          0x000000000000b13c        0x0 c:/users/bdunne/source/lcd_camera_example/lcd_camera_bsp\libhal_bsp.a(altera_avalon_jtag_uart_read.o)
 .data          0x000000000000b13c        0x0 c:/users/bdunne/source/lcd_camera_example/lcd_camera_bsp\libhal_bsp.a(altera_avalon_jtag_uart_write.o)
 .data          0x000000000000b13c        0x0 c:/users/bdunne/source/lcd_camera_example/lcd_camera_bsp\libhal_bsp.a(altera_avalon_timer_sc.o)
 .data          0x000000000000b13c        0x0 c:/users/bdunne/source/lcd_camera_example/lcd_camera_bsp\libhal_bsp.a(dma_avalon_st_sink_to_mm_master.o)
 .data          0x000000000000b13c        0x0 c:/users/bdunne/source/lcd_camera_example/lcd_camera_bsp\libhal_bsp.a(lcd8080.o)
 .data          0x000000000000b13c        0x0 c:/users/bdunne/source/lcd_camera_example/lcd_camera_bsp\libhal_bsp.a(alt_alarm_start.o)
 .data          0x000000000000b13c        0x0 c:/users/bdunne/source/lcd_camera_example/lcd_camera_bsp\libhal_bsp.a(alt_busy_sleep.o)
 .data          0x000000000000b13c        0x0 c:/users/bdunne/source/lcd_camera_example/lcd_camera_bsp\libhal_bsp.a(alt_dcache_flush_all.o)
 .data          0x000000000000b13c        0x0 c:/users/bdunne/source/lcd_camera_example/lcd_camera_bsp\libhal_bsp.a(alt_dev_llist_insert.o)
 .data          0x000000000000b13c        0x0 c:/users/bdunne/source/lcd_camera_example/lcd_camera_bsp\libhal_bsp.a(alt_do_ctors.o)
 .data          0x000000000000b13c        0x0 c:/users/bdunne/source/lcd_camera_example/lcd_camera_bsp\libhal_bsp.a(alt_do_dtors.o)
 .data          0x000000000000b13c        0x0 c:/users/bdunne/source/lcd_camera_example/lcd_camera_bsp\libhal_bsp.a(alt_find_dev.o)
 .data          0x000000000000b13c        0x0 c:/users/bdunne/source/lcd_camera_example/lcd_camera_bsp\libhal_bsp.a(alt_icache_flush_all.o)
 .data          0x000000000000b13c        0x0 c:/users/bdunne/source/lcd_camera_example/lcd_camera_bsp\libhal_bsp.a(alt_iic.o)
 .data          0x000000000000b13c        0x0 c:/users/bdunne/source/lcd_camera_example/lcd_camera_bsp\libhal_bsp.a(alt_iic_isr_register.o)
 .data          0x000000000000b13c        0x0 c:/users/bdunne/source/lcd_camera_example/lcd_camera_bsp\libhal_bsp.a(alt_io_redirect.o)
 .data          0x000000000000b13c        0x0 c:/users/bdunne/source/lcd_camera_example/lcd_camera_bsp\libhal_bsp.a(alt_irq_entry.o)
 .data          0x000000000000b13c        0x0 c:/users/bdunne/source/lcd_camera_example/lcd_camera_bsp\libhal_bsp.a(alt_irq_handler.o)
 .data          0x000000000000b13c        0x0 c:/users/bdunne/source/lcd_camera_example/lcd_camera_bsp\libhal_bsp.a(alt_irq_vars.o)
 .data          0x000000000000b13c        0x0 c:/users/bdunne/source/lcd_camera_example/lcd_camera_bsp\libhal_bsp.a(alt_open.o)
 .data          0x000000000000b13c        0x0 c:/users/bdunne/source/lcd_camera_example/lcd_camera_bsp\libhal_bsp.a(alt_printf.o)
 .data          0x000000000000b13c        0x0 c:/users/bdunne/source/lcd_camera_example/lcd_camera_bsp\libhal_bsp.a(alt_putchar.o)
 .data          0x000000000000b13c        0x0 c:/users/bdunne/source/lcd_camera_example/lcd_camera_bsp\libhal_bsp.a(alt_tick.o)
 .data          0x000000000000b13c        0x0 c:/users/bdunne/source/lcd_camera_example/lcd_camera_bsp\libhal_bsp.a(altera_nios2_gen2_irq.o)
 .data          0x000000000000b13c        0x0 c:/users/bdunne/source/lcd_camera_example/lcd_camera_bsp\libhal_bsp.a(alt_exception_entry.o)
 .data          0x000000000000b13c        0x0 c:/users/bdunne/source/lcd_camera_example/lcd_camera_bsp\libhal_bsp.a(alt_find_file.o)
 .data          0x000000000000b13c        0x0 c:/users/bdunne/source/lcd_camera_example/lcd_camera_bsp\libhal_bsp.a(alt_get_fd.o)
 .data          0x000000000000b13c        0x0 c:/users/bdunne/source/lcd_camera_example/lcd_camera_bsp\libhal_bsp.a(alt_icache_flush.o)
 .data          0x000000000000b13c        0x0 c:/users/bdunne/source/lcd_camera_example/lcd_camera_bsp\libhal_bsp.a(alt_instruction_exception_entry.o)
 .data          0x000000000000b13c        0x0 c:/intelfpga_lite/20.1/nios2eds/bin/gnu/h-x86_64-mingw32/bin/../lib/gcc/nios2-elf/10.1.1/../../../../../H-x86_64-mingw32/nios2-elf/lib/mhw-mulx\libc.a(lib_a-atexit.o)
 .data          0x000000000000b13c        0x0 c:/intelfpga_lite/20.1/nios2eds/bin/gnu/h-x86_64-mingw32/bin/../lib/gcc/nios2-elf/10.1.1/../../../../../H-x86_64-mingw32/nios2-elf/lib/mhw-mulx\libc.a(lib_a-exit.o)
 .data          0x000000000000b13c        0x0 c:/intelfpga_lite/20.1/nios2eds/bin/gnu/h-x86_64-mingw32/bin/../lib/gcc/nios2-elf/10.1.1/../../../../../H-x86_64-mingw32/nios2-elf/lib/mhw-mulx\libc.a(lib_a-memcmp.o)
 .data          0x000000000000b13c        0x0 c:/intelfpga_lite/20.1/nios2eds/bin/gnu/h-x86_64-mingw32/bin/../lib/gcc/nios2-elf/10.1.1/../../../../../H-x86_64-mingw32/nios2-elf/lib/mhw-mulx\libc.a(lib_a-putchar.o)
 .data          0x000000000000b13c        0x0 c:/intelfpga_lite/20.1/nios2eds/bin/gnu/h-x86_64-mingw32/bin/../lib/gcc/nios2-elf/10.1.1/../../../../../H-x86_64-mingw32/nios2-elf/lib/mhw-mulx\libc.a(lib_a-__atexit.o)
 .data          0x000000000000b13c        0x0 c:/intelfpga_lite/20.1/nios2eds/bin/gnu/h-x86_64-mingw32/bin/../lib/gcc/nios2-elf/10.1.1/../../../../../H-x86_64-mingw32/nios2-elf/lib/mhw-mulx\libc.a(lib_a-__call_atexit.o)
 .data          0x000000000000b13c        0x0 c:/intelfpga_lite/20.1/nios2eds/bin/gnu/h-x86_64-mingw32/bin/../lib/gcc/nios2-elf/10.1.1/../../../../../H-x86_64-mingw32/nios2-elf/lib/mhw-mulx\libc.a(lib_a-putc.o)
 .data          0x000000000000b13c        0x0 c:/intelfpga_lite/20.1/nios2eds/bin/gnu/h-x86_64-mingw32/bin/../lib/gcc/nios2-elf/10.1.1/../../../../../H-x86_64-mingw32/nios2-elf/lib/mhw-mulx\libc.a(lib_a-wbuf.o)
 .data          0x000000000000b13c        0x0 c:/users/bdunne/source/lcd_camera_example/lcd_camera_bsp\libhal_bsp.a(alt_exit.o)
                0x000000000001313c                _gp = ABSOLUTE ((. + 0x8000))
                [!provide]                        PROVIDE (gp = _gp)
 *(.rwdata .rwdata.*)
 *(.sdata .sdata.* .gnu.linkonce.s.*)
 .sdata         0x000000000000b13c        0x8 obj/default/main.o
                0x000000000000b13c                front_buffer
                0x000000000000b140                back_buffer
 .sdata._global_impure_ptr
                0x000000000000b144        0x4 c:/intelfpga_lite/20.1/nios2eds/bin/gnu/h-x86_64-mingw32/bin/../lib/gcc/nios2-elf/10.1.1/../../../../../H-x86_64-mingw32/nios2-elf/lib/mhw-mulx\libc.a(lib_a-impure.o)
                0x000000000000b144                _global_impure_ptr
 .sdata._impure_ptr
                0x000000000000b148        0x4 c:/intelfpga_lite/20.1/nios2eds/bin/gnu/h-x86_64-mingw32/bin/../lib/gcc/nios2-elf/10.1.1/../../../../../H-x86_64-mingw32/nios2-elf/lib/mhw-mulx\libc.a(lib_a-impure.o)
                0x000000000000b148                _impure_ptr
 .sdata.__malloc_sbrk_base
                0x000000000000b14c        0x4 c:/intelfpga_lite/20.1/nios2eds/bin/gnu/h-x86_64-mingw32/bin/../lib/gcc/nios2-elf/10.1.1/../../../../../H-x86_64-mingw32/nios2-elf/lib/mhw-mulx\libc.a(lib_a-mallocr.o)
                0x000000000000b14c                __malloc_sbrk_base
 .sdata.__malloc_trim_threshold
                0x000000000000b150        0x4 c:/intelfpga_lite/20.1/nios2eds/bin/gnu/h-x86_64-mingw32/bin/../lib/gcc/nios2-elf/10.1.1/../../../../../H-x86_64-mingw32/nios2-elf/lib/mhw-mulx\libc.a(lib_a-mallocr.o)
                0x000000000000b150                __malloc_trim_threshold
 .sdata         0x000000000000b154       0x14 c:/users/bdunne/source/lcd_camera_example/lcd_camera_bsp\libhal_bsp.a(alt_dev.o)
                0x000000000000b154                alt_fs_list
                0x000000000000b15c                alt_dev_list
                0x000000000000b164                alt_max_fd
 .sdata         0x000000000000b168        0x4 c:/users/bdunne/source/lcd_camera_example/lcd_camera_bsp\libhal_bsp.a(alt_errno.o)
                0x000000000000b168                alt_errno
 .sdata         0x000000000000b16c        0x4 c:/users/bdunne/source/lcd_camera_example/lcd_camera_bsp\libhal_bsp.a(alt_sbrk.o)
 .sdata         0x000000000000b170        0x8 c:/users/bdunne/source/lcd_camera_example/lcd_camera_bsp\libhal_bsp.a(altera_avalon_i2c.o)
                0x000000000000b170                alt_avalon_i2c_list
 .sdata         0x000000000000b178        0x8 c:/users/bdunne/source/lcd_camera_example/lcd_camera_bsp\libhal_bsp.a(dma_avalon_st_sink_to_mm_master.o)
                0x000000000000b178                dma_s2m_dev_list
 .sdata         0x000000000000b180        0x8 c:/users/bdunne/source/lcd_camera_example/lcd_camera_bsp\libhal_bsp.a(lcd8080.o)
                0x000000000000b180                lcd8080_dev_list
 .sdata         0x000000000000b188        0x4 c:/users/bdunne/source/lcd_camera_example/lcd_camera_bsp\libhal_bsp.a(alt_irq_vars.o)
                0x000000000000b188                alt_priority_mask
 .sdata         0x000000000000b18c        0x8 c:/users/bdunne/source/lcd_camera_example/lcd_camera_bsp\libhal_bsp.a(alt_tick.o)
                0x000000000000b18c                alt_alarm_list
 *(.sdata2 .sdata2.* .gnu.linkonce.s2.*)
                0x000000000000b194                . = ALIGN (0x4)
                0x000000000000b194                _edata = ABSOLUTE (.)
                [!provide]                        PROVIDE (edata = ABSOLUTE (.))
                0x000000000000b194                PROVIDE (__ram_rwdata_end = ABSOLUTE (.))
                0x000000000000b194                PROVIDE (__flash_rwdata_start = LOADADDR (.rwdata))

.bss            0x000000000000cc90   0x17715c
                0x000000000000cc90                __bss_start = ABSOLUTE (.)
                [!provide]                        PROVIDE (__sbss_start = ABSOLUTE (.))
                [!provide]                        PROVIDE (___sbss_start = ABSOLUTE (.))
 *(.dynsbss)
 *(.sbss .sbss.* .gnu.linkonce.sb.*)
 .sbss          0x000000000000cc90        0x8 obj/default/main.o
                0x000000000000cc90                capture_failed
                0x000000000000cc94                capture_complete
 .sbss.__malloc_max_total_mem
                0x000000000000cc98        0x4 c:/intelfpga_lite/20.1/nios2eds/bin/gnu/h-x86_64-mingw32/bin/../lib/gcc/nios2-elf/10.1.1/../../../../../H-x86_64-mingw32/nios2-elf/lib/mhw-mulx\libc.a(lib_a-mallocr.o)
                0x000000000000cc98                __malloc_max_total_mem
 .sbss.__malloc_max_sbrked_mem
                0x000000000000cc9c        0x4 c:/intelfpga_lite/20.1/nios2eds/bin/gnu/h-x86_64-mingw32/bin/../lib/gcc/nios2-elf/10.1.1/../../../../../H-x86_64-mingw32/nios2-elf/lib/mhw-mulx\libc.a(lib_a-mallocr.o)
                0x000000000000cc9c                __malloc_max_sbrked_mem
 .sbss.__malloc_top_pad
                0x000000000000cca0        0x4 c:/intelfpga_lite/20.1/nios2eds/bin/gnu/h-x86_64-mingw32/bin/../lib/gcc/nios2-elf/10.1.1/../../../../../H-x86_64-mingw32/nios2-elf/lib/mhw-mulx\libc.a(lib_a-mallocr.o)
                0x000000000000cca0                __malloc_top_pad
 .sbss.errno    0x000000000000cca4        0x4 c:/intelfpga_lite/20.1/nios2eds/bin/gnu/h-x86_64-mingw32/bin/../lib/gcc/nios2-elf/10.1.1/../../../../../H-x86_64-mingw32/nios2-elf/lib/mhw-mulx\libc.a(lib_a-int_errno.o)
                0x000000000000cca4                errno
 .sbss          0x000000000000cca8        0xc c:/users/bdunne/source/lcd_camera_example/lcd_camera_bsp\libhal_bsp.a(alt_main.o)
                0x000000000000cca8                alt_argc
                0x000000000000ccac                alt_argv
                0x000000000000ccb0                alt_envp
 .sbss          0x000000000000ccb4        0x4 c:/users/bdunne/source/lcd_camera_example/lcd_camera_bsp\libhal_bsp.a(alt_irq_vars.o)
                0x000000000000ccb4                alt_irq_active
 .sbss          0x000000000000ccb8        0x8 c:/users/bdunne/source/lcd_camera_example/lcd_camera_bsp\libhal_bsp.a(alt_tick.o)
                0x000000000000ccb8                _alt_tick_rate
                0x000000000000ccbc                _alt_nticks
 .sbss          0x000000000000ccc0        0x4 c:/users/bdunne/source/lcd_camera_example/lcd_camera_bsp\libhal_bsp.a(alt_instruction_exception_entry.o)
                0x000000000000ccc0                alt_instruction_exception_handler
 *(.sbss2 .sbss2.* .gnu.linkonce.sb2.*)
 *(.scommon)
                [!provide]                        PROVIDE (__sbss_end = ABSOLUTE (.))
                [!provide]                        PROVIDE (___sbss_end = ABSOLUTE (.))
 *(.dynbss)
 *(.bss .bss.* .gnu.linkonce.b.*)
 .bss           0x000000000000ccc4        0x0 c:/users/bdunne/source/lcd_camera_example/lcd_camera_bsp/obj/HAL/src/crt0.o
 .bss           0x000000000000ccc4        0x0 obj/default/camera.o
 .bss           0x000000000000ccc4   0x177000 obj/default/main.o
                0x000000000000ccc4                buffer1
                0x00000000000a2cc4                buffer2
                0x0000000000138cc4                framebuffer
 .bss           0x0000000000183cc4        0x0 c:/intelfpga_lite/20.1/nios2eds/bin/gnu/h-x86_64-mingw32/bin/../lib/gcc/nios2-elf/10.1.1/mhw-mulx\libgcc.a(_fixunssfsi.o)
 .bss           0x0000000000183cc4        0x0 c:/intelfpga_lite/20.1/nios2eds/bin/gnu/h-x86_64-mingw32/bin/../lib/gcc/nios2-elf/10.1.1/mhw-mulx\libgcc.a(gesf2.o)
 .bss           0x0000000000183cc4        0x0 c:/intelfpga_lite/20.1/nios2eds/bin/gnu/h-x86_64-mingw32/bin/../lib/gcc/nios2-elf/10.1.1/mhw-mulx\libgcc.a(subsf3.o)
 .bss           0x0000000000183cc4        0x0 c:/intelfpga_lite/20.1/nios2eds/bin/gnu/h-x86_64-mingw32/bin/../lib/gcc/nios2-elf/10.1.1/mhw-mulx\libgcc.a(fixsfsi.o)
 .bss           0x0000000000183cc4        0x0 c:/intelfpga_lite/20.1/nios2eds/bin/gnu/h-x86_64-mingw32/bin/../lib/gcc/nios2-elf/10.1.1/mhw-mulx\libgcc.a(floatsisf.o)
 .bss           0x0000000000183cc4        0x0 c:/intelfpga_lite/20.1/nios2eds/bin/gnu/h-x86_64-mingw32/bin/../lib/gcc/nios2-elf/10.1.1/mhw-mulx\libgcc.a(_clzsi2.o)
 .bss           0x0000000000183cc4        0x0 c:/intelfpga_lite/20.1/nios2eds/bin/gnu/h-x86_64-mingw32/bin/../lib/gcc/nios2-elf/10.1.1/mhw-mulx\libgcc.a(_clz.o)
 .bss           0x0000000000183cc4        0x0 c:/intelfpga_lite/20.1/nios2eds/bin/gnu/h-x86_64-mingw32/bin/../lib/gcc/nios2-elf/10.1.1/../../../../../H-x86_64-mingw32/nios2-elf/lib/mhw-mulx\libc.a(lib_a-puts.o)
 .bss           0x0000000000183cc4        0x0 c:/intelfpga_lite/20.1/nios2eds/bin/gnu/h-x86_64-mingw32/bin/../lib/gcc/nios2-elf/10.1.1/../../../../../H-x86_64-mingw32/nios2-elf/lib/mhw-mulx\libc.a(lib_a-strlen.o)
 .bss           0x0000000000183cc4        0x0 c:/intelfpga_lite/20.1/nios2eds/bin/gnu/h-x86_64-mingw32/bin/../lib/gcc/nios2-elf/10.1.1/../../../../../H-x86_64-mingw32/nios2-elf/lib/mhw-mulx\libc.a(lib_a-findfp.o)
 .bss           0x0000000000183cc4        0x0 c:/intelfpga_lite/20.1/nios2eds/bin/gnu/h-x86_64-mingw32/bin/../lib/gcc/nios2-elf/10.1.1/../../../../../H-x86_64-mingw32/nios2-elf/lib/mhw-mulx\libc.a(lib_a-fvwrite.o)
 .bss           0x0000000000183cc4        0x0 c:/intelfpga_lite/20.1/nios2eds/bin/gnu/h-x86_64-mingw32/bin/../lib/gcc/nios2-elf/10.1.1/../../../../../H-x86_64-mingw32/nios2-elf/lib/mhw-mulx\libc.a(lib_a-fwalk.o)
 .bss           0x0000000000183cc4        0x0 c:/intelfpga_lite/20.1/nios2eds/bin/gnu/h-x86_64-mingw32/bin/../lib/gcc/nios2-elf/10.1.1/../../../../../H-x86_64-mingw32/nios2-elf/lib/mhw-mulx\libc.a(lib_a-impure.o)
 .bss           0x0000000000183cc4        0x0 c:/intelfpga_lite/20.1/nios2eds/bin/gnu/h-x86_64-mingw32/bin/../lib/gcc/nios2-elf/10.1.1/../../../../../H-x86_64-mingw32/nios2-elf/lib/mhw-mulx\libc.a(lib_a-mallocr.o)
 .bss.__malloc_current_mallinfo
                0x0000000000183cc4       0x28 c:/intelfpga_lite/20.1/nios2eds/bin/gnu/h-x86_64-mingw32/bin/../lib/gcc/nios2-elf/10.1.1/../../../../../H-x86_64-mingw32/nios2-elf/lib/mhw-mulx\libc.a(lib_a-mallocr.o)
                0x0000000000183cc4                __malloc_current_mallinfo
 .bss           0x0000000000183cec        0x0 c:/intelfpga_lite/20.1/nios2eds/bin/gnu/h-x86_64-mingw32/bin/../lib/gcc/nios2-elf/10.1.1/../../../../../H-x86_64-mingw32/nios2-elf/lib/mhw-mulx\libc.a(lib_a-memchr.o)
 .bss           0x0000000000183cec        0x0 c:/intelfpga_lite/20.1/nios2eds/bin/gnu/h-x86_64-mingw32/bin/../lib/gcc/nios2-elf/10.1.1/../../../../../H-x86_64-mingw32/nios2-elf/lib/mhw-mulx\libc.a(lib_a-memcpy.o)
 .bss           0x0000000000183cec        0x0 c:/intelfpga_lite/20.1/nios2eds/bin/gnu/h-x86_64-mingw32/bin/../lib/gcc/nios2-elf/10.1.1/../../../../../H-x86_64-mingw32/nios2-elf/lib/mhw-mulx\libc.a(lib_a-memmove.o)
 .bss           0x0000000000183cec        0x0 c:/intelfpga_lite/20.1/nios2eds/bin/gnu/h-x86_64-mingw32/bin/../lib/gcc/nios2-elf/10.1.1/../../../../../H-x86_64-mingw32/nios2-elf/lib/mhw-mulx\libc.a(lib_a-memset.o)
 .bss           0x0000000000183cec        0x0 c:/intelfpga_lite/20.1/nios2eds/bin/gnu/h-x86_64-mingw32/bin/../lib/gcc/nios2-elf/10.1.1/../../../../../H-x86_64-mingw32/nios2-elf/lib/mhw-mulx\libc.a(lib_a-reallocr.o)
 .bss           0x0000000000183cec        0x0 c:/intelfpga_lite/20.1/nios2eds/bin/gnu/h-x86_64-mingw32/bin/../lib/gcc/nios2-elf/10.1.1/../../../../../H-x86_64-mingw32/nios2-elf/lib/mhw-mulx\libc.a(lib_a-sbrkr.o)
 .bss           0x0000000000183cec        0x0 c:/intelfpga_lite/20.1/nios2eds/bin/gnu/h-x86_64-mingw32/bin/../lib/gcc/nios2-elf/10.1.1/../../../../../H-x86_64-mingw32/nios2-elf/lib/mhw-mulx\libc.a(lib_a-stdio.o)
 .bss           0x0000000000183cec        0x0 c:/intelfpga_lite/20.1/nios2eds/bin/gnu/h-x86_64-mingw32/bin/../lib/gcc/nios2-elf/10.1.1/../../../../../H-x86_64-mingw32/nios2-elf/lib/mhw-mulx\libc.a(lib_a-writer.o)
 .bss           0x0000000000183cec        0x0 c:/intelfpga_lite/20.1/nios2eds/bin/gnu/h-x86_64-mingw32/bin/../lib/gcc/nios2-elf/10.1.1/../../../../../H-x86_64-mingw32/nios2-elf/lib/mhw-mulx\libc.a(lib_a-wsetup.o)
 .bss           0x0000000000183cec        0x0 c:/intelfpga_lite/20.1/nios2eds/bin/gnu/h-x86_64-mingw32/bin/../lib/gcc/nios2-elf/10.1.1/../../../../../H-x86_64-mingw32/nios2-elf/lib/mhw-mulx\libc.a(closer.o)
 .bss           0x0000000000183cec        0x0 c:/intelfpga_lite/20.1/nios2eds/bin/gnu/h-x86_64-mingw32/bin/../lib/gcc/nios2-elf/10.1.1/../../../../../H-x86_64-mingw32/nios2-elf/lib/mhw-mulx\libc.a(lib_a-fclose.o)
 .bss           0x0000000000183cec        0x0 c:/intelfpga_lite/20.1/nios2eds/bin/gnu/h-x86_64-mingw32/bin/../lib/gcc/nios2-elf/10.1.1/../../../../../H-x86_64-mingw32/nios2-elf/lib/mhw-mulx\libc.a(lib_a-fflush.o)
 .bss           0x0000000000183cec        0x0 c:/intelfpga_lite/20.1/nios2eds/bin/gnu/h-x86_64-mingw32/bin/../lib/gcc/nios2-elf/10.1.1/../../../../../H-x86_64-mingw32/nios2-elf/lib/mhw-mulx\libc.a(lib_a-freer.o)
 .bss           0x0000000000183cec        0x0 c:/intelfpga_lite/20.1/nios2eds/bin/gnu/h-x86_64-mingw32/bin/../lib/gcc/nios2-elf/10.1.1/../../../../../H-x86_64-mingw32/nios2-elf/lib/mhw-mulx\libc.a(lib_a-int_errno.o)
 .bss           0x0000000000183cec        0x0 c:/intelfpga_lite/20.1/nios2eds/bin/gnu/h-x86_64-mingw32/bin/../lib/gcc/nios2-elf/10.1.1/../../../../../H-x86_64-mingw32/nios2-elf/lib/mhw-mulx\libc.a(lib_a-lseekr.o)
 .bss           0x0000000000183cec        0x0 c:/intelfpga_lite/20.1/nios2eds/bin/gnu/h-x86_64-mingw32/bin/../lib/gcc/nios2-elf/10.1.1/../../../../../H-x86_64-mingw32/nios2-elf/lib/mhw-mulx\libc.a(lib_a-makebuf.o)
 .bss           0x0000000000183cec        0x0 c:/intelfpga_lite/20.1/nios2eds/bin/gnu/h-x86_64-mingw32/bin/../lib/gcc/nios2-elf/10.1.1/../../../../../H-x86_64-mingw32/nios2-elf/lib/mhw-mulx\libc.a(lib_a-readr.o)
 .bss           0x0000000000183cec        0x0 c:/intelfpga_lite/20.1/nios2eds/bin/gnu/h-x86_64-mingw32/bin/../lib/gcc/nios2-elf/10.1.1/../../../../../H-x86_64-mingw32/nios2-elf/lib/mhw-mulx\libc.a(lib_a-fstatr.o)
 .bss           0x0000000000183cec        0x0 c:/intelfpga_lite/20.1/nios2eds/bin/gnu/h-x86_64-mingw32/bin/../lib/gcc/nios2-elf/10.1.1/../../../../../H-x86_64-mingw32/nios2-elf/lib/mhw-mulx\libc.a(lib_a-isattyr.o)
 .bss           0x0000000000183cec        0x0 c:/intelfpga_lite/20.1/nios2eds/bin/gnu/h-x86_64-mingw32/bin/../lib/gcc/nios2-elf/10.1.1/mhw-mulx\libgcc.a(lib2-divmod.o)
 .bss           0x0000000000183cec        0x0 c:/users/bdunne/source/lcd_camera_example/lcd_camera_bsp\libhal_bsp.a(alt_close.o)
 .bss           0x0000000000183cec        0x0 c:/users/bdunne/source/lcd_camera_example/lcd_camera_bsp\libhal_bsp.a(alt_dev.o)
 .bss           0x0000000000183cec        0x0 c:/users/bdunne/source/lcd_camera_example/lcd_camera_bsp\libhal_bsp.a(alt_errno.o)
 .bss           0x0000000000183cec        0x0 c:/users/bdunne/source/lcd_camera_example/lcd_camera_bsp\libhal_bsp.a(alt_fstat.o)
 .bss           0x0000000000183cec        0x0 c:/users/bdunne/source/lcd_camera_example/lcd_camera_bsp\libhal_bsp.a(alt_isatty.o)
 .bss           0x0000000000183cec        0x0 c:/users/bdunne/source/lcd_camera_example/lcd_camera_bsp\libhal_bsp.a(alt_load.o)
 .bss           0x0000000000183cec        0x0 c:/users/bdunne/source/lcd_camera_example/lcd_camera_bsp\libhal_bsp.a(alt_lseek.o)
 .bss           0x0000000000183cec        0x0 c:/users/bdunne/source/lcd_camera_example/lcd_camera_bsp\libhal_bsp.a(alt_main.o)
 .bss           0x0000000000183cec        0x0 c:/users/bdunne/source/lcd_camera_example/lcd_camera_bsp\libhal_bsp.a(alt_malloc_lock.o)
 .bss           0x0000000000183cec        0x0 c:/users/bdunne/source/lcd_camera_example/lcd_camera_bsp\libhal_bsp.a(alt_read.o)
 .bss           0x0000000000183cec        0x0 c:/users/bdunne/source/lcd_camera_example/lcd_camera_bsp\libhal_bsp.a(alt_release_fd.o)
 .bss           0x0000000000183cec        0x0 c:/users/bdunne/source/lcd_camera_example/lcd_camera_bsp\libhal_bsp.a(alt_sbrk.o)
 .bss           0x0000000000183cec        0x0 c:/users/bdunne/source/lcd_camera_example/lcd_camera_bsp\libhal_bsp.a(alt_write.o)
 .bss           0x0000000000183cec        0x0 c:/users/bdunne/source/lcd_camera_example/lcd_camera_bsp\libhal_bsp.a(alt_sys_init.o)
 .bss           0x0000000000183cec        0x0 c:/users/bdunne/source/lcd_camera_example/lcd_camera_bsp\libhal_bsp.a(altera_avalon_i2c.o)
 .bss           0x0000000000183cec        0x0 c:/users/bdunne/source/lcd_camera_example/lcd_camera_bsp\libhal_bsp.a(altera_avalon_jtag_uart_fd.o)
 .bss           0x0000000000183cec        0x0 c:/users/bdunne/source/lcd_camera_example/lcd_camera_bsp\libhal_bsp.a(altera_avalon_jtag_uart_init.o)
 .bss           0x0000000000183cec        0x0 c:/users/bdunne/source/lcd_camera_example/lcd_camera_bsp\libhal_bsp.a(altera_avalon_jtag_uart_ioctl.o)
 .bss           0x0000000000183cec        0x0 c:/users/bdunne/source/lcd_camera_example/lcd_camera_bsp\libhal_bsp.a(altera_avalon_jtag_uart_read.o)
 .bss           0x0000000000183cec        0x0 c:/users/bdunne/source/lcd_camera_example/lcd_camera_bsp\libhal_bsp.a(altera_avalon_jtag_uart_write.o)
 .bss           0x0000000000183cec        0x0 c:/users/bdunne/source/lcd_camera_example/lcd_camera_bsp\libhal_bsp.a(altera_avalon_timer_sc.o)
 .bss           0x0000000000183cec        0x0 c:/users/bdunne/source/lcd_camera_example/lcd_camera_bsp\libhal_bsp.a(dma_avalon_st_sink_to_mm_master.o)
 .bss           0x0000000000183cec        0x0 c:/users/bdunne/source/lcd_camera_example/lcd_camera_bsp\libhal_bsp.a(lcd8080.o)
 .bss           0x0000000000183cec        0x0 c:/users/bdunne/source/lcd_camera_example/lcd_camera_bsp\libhal_bsp.a(alt_alarm_start.o)
 .bss           0x0000000000183cec        0x0 c:/users/bdunne/source/lcd_camera_example/lcd_camera_bsp\libhal_bsp.a(alt_busy_sleep.o)
 .bss           0x0000000000183cec        0x0 c:/users/bdunne/source/lcd_camera_example/lcd_camera_bsp\libhal_bsp.a(alt_dcache_flush_all.o)
 .bss           0x0000000000183cec        0x0 c:/users/bdunne/source/lcd_camera_example/lcd_camera_bsp\libhal_bsp.a(alt_dev_llist_insert.o)
 .bss           0x0000000000183cec        0x0 c:/users/bdunne/source/lcd_camera_example/lcd_camera_bsp\libhal_bsp.a(alt_do_ctors.o)
 .bss           0x0000000000183cec        0x0 c:/users/bdunne/source/lcd_camera_example/lcd_camera_bsp\libhal_bsp.a(alt_do_dtors.o)
 .bss           0x0000000000183cec        0x0 c:/users/bdunne/source/lcd_camera_example/lcd_camera_bsp\libhal_bsp.a(alt_find_dev.o)
 .bss           0x0000000000183cec        0x0 c:/users/bdunne/source/lcd_camera_example/lcd_camera_bsp\libhal_bsp.a(alt_icache_flush_all.o)
 .bss           0x0000000000183cec        0x0 c:/users/bdunne/source/lcd_camera_example/lcd_camera_bsp\libhal_bsp.a(alt_iic.o)
 .bss           0x0000000000183cec        0x0 c:/users/bdunne/source/lcd_camera_example/lcd_camera_bsp\libhal_bsp.a(alt_iic_isr_register.o)
 .bss           0x0000000000183cec        0x0 c:/users/bdunne/source/lcd_camera_example/lcd_camera_bsp\libhal_bsp.a(alt_io_redirect.o)
 .bss           0x0000000000183cec        0x0 c:/users/bdunne/source/lcd_camera_example/lcd_camera_bsp\libhal_bsp.a(alt_irq_entry.o)
 .bss           0x0000000000183cec      0x100 c:/users/bdunne/source/lcd_camera_example/lcd_camera_bsp\libhal_bsp.a(alt_irq_handler.o)
                0x0000000000183cec                alt_irq
 .bss           0x0000000000183dec        0x0 c:/users/bdunne/source/lcd_camera_example/lcd_camera_bsp\libhal_bsp.a(alt_irq_vars.o)
 .bss           0x0000000000183dec        0x0 c:/users/bdunne/source/lcd_camera_example/lcd_camera_bsp\libhal_bsp.a(alt_open.o)
 .bss           0x0000000000183dec        0x0 c:/users/bdunne/source/lcd_camera_example/lcd_camera_bsp\libhal_bsp.a(alt_printf.o)
 .bss           0x0000000000183dec        0x0 c:/users/bdunne/source/lcd_camera_example/lcd_camera_bsp\libhal_bsp.a(alt_putchar.o)
 .bss           0x0000000000183dec        0x0 c:/users/bdunne/source/lcd_camera_example/lcd_camera_bsp\libhal_bsp.a(alt_tick.o)
 .bss           0x0000000000183dec        0x0 c:/users/bdunne/source/lcd_camera_example/lcd_camera_bsp\libhal_bsp.a(altera_nios2_gen2_irq.o)
 .bss           0x0000000000183dec        0x0 c:/users/bdunne/source/lcd_camera_example/lcd_camera_bsp\libhal_bsp.a(alt_exception_entry.o)
 .bss           0x0000000000183dec        0x0 c:/users/bdunne/source/lcd_camera_example/lcd_camera_bsp\libhal_bsp.a(alt_find_file.o)
 .bss           0x0000000000183dec        0x0 c:/users/bdunne/source/lcd_camera_example/lcd_camera_bsp\libhal_bsp.a(alt_get_fd.o)
 .bss           0x0000000000183dec        0x0 c:/users/bdunne/source/lcd_camera_example/lcd_camera_bsp\libhal_bsp.a(alt_icache_flush.o)
 .bss           0x0000000000183dec        0x0 c:/users/bdunne/source/lcd_camera_example/lcd_camera_bsp\libhal_bsp.a(alt_instruction_exception_entry.o)
 .bss           0x0000000000183dec        0x0 c:/intelfpga_lite/20.1/nios2eds/bin/gnu/h-x86_64-mingw32/bin/../lib/gcc/nios2-elf/10.1.1/../../../../../H-x86_64-mingw32/nios2-elf/lib/mhw-mulx\libc.a(lib_a-atexit.o)
 .bss           0x0000000000183dec        0x0 c:/intelfpga_lite/20.1/nios2eds/bin/gnu/h-x86_64-mingw32/bin/../lib/gcc/nios2-elf/10.1.1/../../../../../H-x86_64-mingw32/nios2-elf/lib/mhw-mulx\libc.a(lib_a-exit.o)
 .bss           0x0000000000183dec        0x0 c:/intelfpga_lite/20.1/nios2eds/bin/gnu/h-x86_64-mingw32/bin/../lib/gcc/nios2-elf/10.1.1/../../../../../H-x86_64-mingw32/nios2-elf/lib/mhw-mulx\libc.a(lib_a-memcmp.o)
 .bss           0x0000000000183dec        0x0 c:/intelfpga_lite/20.1/nios2eds/bin/gnu/h-x86_64-mingw32/bin/../lib/gcc/nios2-elf/10.1.1/../../../../../H-x86_64-mingw32/nios2-elf/lib/mhw-mulx\libc.a(lib_a-putchar.o)
 .bss           0x0000000000183dec        0x0 c:/intelfpga_lite/20.1/nios2eds/bin/gnu/h-x86_64-mingw32/bin/../lib/gcc/nios2-elf/10.1.1/../../../../../H-x86_64-mingw32/nios2-elf/lib/mhw-mulx\libc.a(lib_a-__atexit.o)
 .bss           0x0000000000183dec        0x0 c:/intelfpga_lite/20.1/nios2eds/bin/gnu/h-x86_64-mingw32/bin/../lib/gcc/nios2-elf/10.1.1/../../../../../H-x86_64-mingw32/nios2-elf/lib/mhw-mulx\libc.a(lib_a-__call_atexit.o)
 .bss           0x0000000000183dec        0x0 c:/intelfpga_lite/20.1/nios2eds/bin/gnu/h-x86_64-mingw32/bin/../lib/gcc/nios2-elf/10.1.1/../../../../../H-x86_64-mingw32/nios2-elf/lib/mhw-mulx\libc.a(lib_a-putc.o)
 .bss           0x0000000000183dec        0x0 c:/intelfpga_lite/20.1/nios2eds/bin/gnu/h-x86_64-mingw32/bin/../lib/gcc/nios2-elf/10.1.1/../../../../../H-x86_64-mingw32/nios2-elf/lib/mhw-mulx\libc.a(lib_a-wbuf.o)
 .bss           0x0000000000183dec        0x0 c:/users/bdunne/source/lcd_camera_example/lcd_camera_bsp\libhal_bsp.a(alt_exit.o)
 *(COMMON)
                0x0000000000183dec                . = ALIGN (0x4)
                0x0000000000183dec                __bss_end = ABSOLUTE (.)

.SDRAM          0x0000000000183dec        0x0
                [!provide]                        PROVIDE (_alt_partition_SDRAM_start = ABSOLUTE (.))
 *(.SDRAM .SDRAM. SDRAM.*)
                0x0000000000183dec                . = ALIGN (0x4)
                [!provide]                        PROVIDE (_alt_partition_SDRAM_end = ABSOLUTE (.))
                0x0000000000183dec                _end = ABSOLUTE (.)
                0x0000000000183dec                end = ABSOLUTE (.)
                0x0000000000183dec                __alt_stack_base = ABSOLUTE (.)
                [!provide]                        PROVIDE (_alt_partition_SDRAM_load_addr = LOADADDR (.SDRAM))

.stab
 *(.stab)

.stabstr
 *(.stabstr)

.stab.excl
 *(.stab.excl)

.stab.exclstr
 *(.stab.exclstr)

.stab.index
 *(.stab.index)

.stab.indexstr
 *(.stab.indexstr)

.comment        0x0000000000000000       0x2d
 *(.comment)
 .comment       0x0000000000000000       0x2d obj/default/camera.o
                                         0x2e (size before relaxing)
 .comment       0x000000000000002d       0x2e obj/default/main.o
 .comment       0x000000000000002d       0x2e c:/intelfpga_lite/20.1/nios2eds/bin/gnu/h-x86_64-mingw32/bin/../lib/gcc/nios2-elf/10.1.1/mhw-mulx\libgcc.a(_fixunssfsi.o)
 .comment       0x000000000000002d       0x2e c:/intelfpga_lite/20.1/nios2eds/bin/gnu/h-x86_64-mingw32/bin/../lib/gcc/nios2-elf/10.1.1/mhw-mulx\libgcc.a(gesf2.o)
 .comment       0x000000000000002d       0x2e c:/intelfpga_lite/20.1/nios2eds/bin/gnu/h-x86_64-mingw32/bin/../lib/gcc/nios2-elf/10.1.1/mhw-mulx\libgcc.a(subsf3.o)
 .comment       0x000000000000002d       0x2e c:/intelfpga_lite/20.1/nios2eds/bin/gnu/h-x86_64-mingw32/bin/../lib/gcc/nios2-elf/10.1.1/mhw-mulx\libgcc.a(fixsfsi.o)
 .comment       0x000000000000002d       0x2e c:/intelfpga_lite/20.1/nios2eds/bin/gnu/h-x86_64-mingw32/bin/../lib/gcc/nios2-elf/10.1.1/mhw-mulx\libgcc.a(floatsisf.o)
 .comment       0x000000000000002d       0x2e c:/intelfpga_lite/20.1/nios2eds/bin/gnu/h-x86_64-mingw32/bin/../lib/gcc/nios2-elf/10.1.1/mhw-mulx\libgcc.a(_clzsi2.o)
 .comment       0x000000000000002d       0x2e c:/intelfpga_lite/20.1/nios2eds/bin/gnu/h-x86_64-mingw32/bin/../lib/gcc/nios2-elf/10.1.1/mhw-mulx\libgcc.a(_clz.o)
 .comment       0x000000000000002d       0x2e c:/intelfpga_lite/20.1/nios2eds/bin/gnu/h-x86_64-mingw32/bin/../lib/gcc/nios2-elf/10.1.1/../../../../../H-x86_64-mingw32/nios2-elf/lib/mhw-mulx\libc.a(lib_a-puts.o)
 .comment       0x000000000000002d       0x2e c:/intelfpga_lite/20.1/nios2eds/bin/gnu/h-x86_64-mingw32/bin/../lib/gcc/nios2-elf/10.1.1/../../../../../H-x86_64-mingw32/nios2-elf/lib/mhw-mulx\libc.a(lib_a-strlen.o)
 .comment       0x000000000000002d       0x2e c:/intelfpga_lite/20.1/nios2eds/bin/gnu/h-x86_64-mingw32/bin/../lib/gcc/nios2-elf/10.1.1/../../../../../H-x86_64-mingw32/nios2-elf/lib/mhw-mulx\libc.a(lib_a-findfp.o)
 .comment       0x000000000000002d       0x2e c:/intelfpga_lite/20.1/nios2eds/bin/gnu/h-x86_64-mingw32/bin/../lib/gcc/nios2-elf/10.1.1/../../../../../H-x86_64-mingw32/nios2-elf/lib/mhw-mulx\libc.a(lib_a-fvwrite.o)
 .comment       0x000000000000002d       0x2e c:/intelfpga_lite/20.1/nios2eds/bin/gnu/h-x86_64-mingw32/bin/../lib/gcc/nios2-elf/10.1.1/../../../../../H-x86_64-mingw32/nios2-elf/lib/mhw-mulx\libc.a(lib_a-fwalk.o)
 .comment       0x000000000000002d       0x2e c:/intelfpga_lite/20.1/nios2eds/bin/gnu/h-x86_64-mingw32/bin/../lib/gcc/nios2-elf/10.1.1/../../../../../H-x86_64-mingw32/nios2-elf/lib/mhw-mulx\libc.a(lib_a-impure.o)
 .comment       0x000000000000002d       0x2e c:/intelfpga_lite/20.1/nios2eds/bin/gnu/h-x86_64-mingw32/bin/../lib/gcc/nios2-elf/10.1.1/../../../../../H-x86_64-mingw32/nios2-elf/lib/mhw-mulx\libc.a(lib_a-mallocr.o)
 .comment       0x000000000000002d       0x2e c:/intelfpga_lite/20.1/nios2eds/bin/gnu/h-x86_64-mingw32/bin/../lib/gcc/nios2-elf/10.1.1/../../../../../H-x86_64-mingw32/nios2-elf/lib/mhw-mulx\libc.a(lib_a-memchr.o)
 .comment       0x000000000000002d       0x2e c:/intelfpga_lite/20.1/nios2eds/bin/gnu/h-x86_64-mingw32/bin/../lib/gcc/nios2-elf/10.1.1/../../../../../H-x86_64-mingw32/nios2-elf/lib/mhw-mulx\libc.a(lib_a-memcpy.o)
 .comment       0x000000000000002d       0x2e c:/intelfpga_lite/20.1/nios2eds/bin/gnu/h-x86_64-mingw32/bin/../lib/gcc/nios2-elf/10.1.1/../../../../../H-x86_64-mingw32/nios2-elf/lib/mhw-mulx\libc.a(lib_a-memmove.o)
 .comment       0x000000000000002d       0x2e c:/intelfpga_lite/20.1/nios2eds/bin/gnu/h-x86_64-mingw32/bin/../lib/gcc/nios2-elf/10.1.1/../../../../../H-x86_64-mingw32/nios2-elf/lib/mhw-mulx\libc.a(lib_a-memset.o)
 .comment       0x000000000000002d       0x2e c:/intelfpga_lite/20.1/nios2eds/bin/gnu/h-x86_64-mingw32/bin/../lib/gcc/nios2-elf/10.1.1/../../../../../H-x86_64-mingw32/nios2-elf/lib/mhw-mulx\libc.a(lib_a-reallocr.o)
 .comment       0x000000000000002d       0x2e c:/intelfpga_lite/20.1/nios2eds/bin/gnu/h-x86_64-mingw32/bin/../lib/gcc/nios2-elf/10.1.1/../../../../../H-x86_64-mingw32/nios2-elf/lib/mhw-mulx\libc.a(lib_a-sbrkr.o)
 .comment       0x000000000000002d       0x2e c:/intelfpga_lite/20.1/nios2eds/bin/gnu/h-x86_64-mingw32/bin/../lib/gcc/nios2-elf/10.1.1/../../../../../H-x86_64-mingw32/nios2-elf/lib/mhw-mulx\libc.a(lib_a-stdio.o)
 .comment       0x000000000000002d       0x2e c:/intelfpga_lite/20.1/nios2eds/bin/gnu/h-x86_64-mingw32/bin/../lib/gcc/nios2-elf/10.1.1/../../../../../H-x86_64-mingw32/nios2-elf/lib/mhw-mulx\libc.a(lib_a-writer.o)
 .comment       0x000000000000002d       0x2e c:/intelfpga_lite/20.1/nios2eds/bin/gnu/h-x86_64-mingw32/bin/../lib/gcc/nios2-elf/10.1.1/../../../../../H-x86_64-mingw32/nios2-elf/lib/mhw-mulx\libc.a(lib_a-wsetup.o)
 .comment       0x000000000000002d       0x2e c:/intelfpga_lite/20.1/nios2eds/bin/gnu/h-x86_64-mingw32/bin/../lib/gcc/nios2-elf/10.1.1/../../../../../H-x86_64-mingw32/nios2-elf/lib/mhw-mulx\libc.a(closer.o)
 .comment       0x000000000000002d       0x2e c:/intelfpga_lite/20.1/nios2eds/bin/gnu/h-x86_64-mingw32/bin/../lib/gcc/nios2-elf/10.1.1/../../../../../H-x86_64-mingw32/nios2-elf/lib/mhw-mulx\libc.a(lib_a-fclose.o)
 .comment       0x000000000000002d       0x2e c:/intelfpga_lite/20.1/nios2eds/bin/gnu/h-x86_64-mingw32/bin/../lib/gcc/nios2-elf/10.1.1/../../../../../H-x86_64-mingw32/nios2-elf/lib/mhw-mulx\libc.a(lib_a-fflush.o)
 .comment       0x000000000000002d       0x2e c:/intelfpga_lite/20.1/nios2eds/bin/gnu/h-x86_64-mingw32/bin/../lib/gcc/nios2-elf/10.1.1/../../../../../H-x86_64-mingw32/nios2-elf/lib/mhw-mulx\libc.a(lib_a-freer.o)
 .comment       0x000000000000002d       0x2e c:/intelfpga_lite/20.1/nios2eds/bin/gnu/h-x86_64-mingw32/bin/../lib/gcc/nios2-elf/10.1.1/../../../../../H-x86_64-mingw32/nios2-elf/lib/mhw-mulx\libc.a(lib_a-int_errno.o)
 .comment       0x000000000000002d       0x2e c:/intelfpga_lite/20.1/nios2eds/bin/gnu/h-x86_64-mingw32/bin/../lib/gcc/nios2-elf/10.1.1/../../../../../H-x86_64-mingw32/nios2-elf/lib/mhw-mulx\libc.a(lib_a-lseekr.o)
 .comment       0x000000000000002d       0x2e c:/intelfpga_lite/20.1/nios2eds/bin/gnu/h-x86_64-mingw32/bin/../lib/gcc/nios2-elf/10.1.1/../../../../../H-x86_64-mingw32/nios2-elf/lib/mhw-mulx\libc.a(lib_a-makebuf.o)
 .comment       0x000000000000002d       0x2e c:/intelfpga_lite/20.1/nios2eds/bin/gnu/h-x86_64-mingw32/bin/../lib/gcc/nios2-elf/10.1.1/../../../../../H-x86_64-mingw32/nios2-elf/lib/mhw-mulx\libc.a(lib_a-readr.o)
 .comment       0x000000000000002d       0x2e c:/intelfpga_lite/20.1/nios2eds/bin/gnu/h-x86_64-mingw32/bin/../lib/gcc/nios2-elf/10.1.1/../../../../../H-x86_64-mingw32/nios2-elf/lib/mhw-mulx\libc.a(lib_a-fstatr.o)
 .comment       0x000000000000002d       0x2e c:/intelfpga_lite/20.1/nios2eds/bin/gnu/h-x86_64-mingw32/bin/../lib/gcc/nios2-elf/10.1.1/../../../../../H-x86_64-mingw32/nios2-elf/lib/mhw-mulx\libc.a(lib_a-isattyr.o)
 .comment       0x000000000000002d       0x2e c:/intelfpga_lite/20.1/nios2eds/bin/gnu/h-x86_64-mingw32/bin/../lib/gcc/nios2-elf/10.1.1/mhw-mulx\libgcc.a(lib2-divmod.o)
 .comment       0x000000000000002d       0x2e c:/users/bdunne/source/lcd_camera_example/lcd_camera_bsp\libhal_bsp.a(alt_close.o)
 .comment       0x000000000000002d       0x2e c:/users/bdunne/source/lcd_camera_example/lcd_camera_bsp\libhal_bsp.a(alt_dev.o)
 .comment       0x000000000000002d       0x2e c:/users/bdunne/source/lcd_camera_example/lcd_camera_bsp\libhal_bsp.a(alt_errno.o)
 .comment       0x000000000000002d       0x2e c:/users/bdunne/source/lcd_camera_example/lcd_camera_bsp\libhal_bsp.a(alt_fstat.o)
 .comment       0x000000000000002d       0x2e c:/users/bdunne/source/lcd_camera_example/lcd_camera_bsp\libhal_bsp.a(alt_isatty.o)
 .comment       0x000000000000002d       0x2e c:/users/bdunne/source/lcd_camera_example/lcd_camera_bsp\libhal_bsp.a(alt_load.o)
 .comment       0x000000000000002d       0x2e c:/users/bdunne/source/lcd_camera_example/lcd_camera_bsp\libhal_bsp.a(alt_lseek.o)
 .comment       0x000000000000002d       0x2e c:/users/bdunne/source/lcd_camera_example/lcd_camera_bsp\libhal_bsp.a(alt_main.o)
 .comment       0x000000000000002d       0x2e c:/users/bdunne/source/lcd_camera_example/lcd_camera_bsp\libhal_bsp.a(alt_malloc_lock.o)
 .comment       0x000000000000002d       0x2e c:/users/bdunne/source/lcd_camera_example/lcd_camera_bsp\libhal_bsp.a(alt_read.o)
 .comment       0x000000000000002d       0x2e c:/users/bdunne/source/lcd_camera_example/lcd_camera_bsp\libhal_bsp.a(alt_release_fd.o)
 .comment       0x000000000000002d       0x2e c:/users/bdunne/source/lcd_camera_example/lcd_camera_bsp\libhal_bsp.a(alt_sbrk.o)
 .comment       0x000000000000002d       0x2e c:/users/bdunne/source/lcd_camera_example/lcd_camera_bsp\libhal_bsp.a(alt_write.o)
 .comment       0x000000000000002d       0x2e c:/users/bdunne/source/lcd_camera_example/lcd_camera_bsp\libhal_bsp.a(alt_sys_init.o)
 .comment       0x000000000000002d       0x2e c:/users/bdunne/source/lcd_camera_example/lcd_camera_bsp\libhal_bsp.a(altera_avalon_i2c.o)
 .comment       0x000000000000002d       0x2e c:/users/bdunne/source/lcd_camera_example/lcd_camera_bsp\libhal_bsp.a(altera_avalon_jtag_uart_fd.o)
 .comment       0x000000000000002d       0x2e c:/users/bdunne/source/lcd_camera_example/lcd_camera_bsp\libhal_bsp.a(altera_avalon_jtag_uart_init.o)
 .comment       0x000000000000002d       0x2e c:/users/bdunne/source/lcd_camera_example/lcd_camera_bsp\libhal_bsp.a(altera_avalon_jtag_uart_ioctl.o)
 .comment       0x000000000000002d       0x2e c:/users/bdunne/source/lcd_camera_example/lcd_camera_bsp\libhal_bsp.a(altera_avalon_jtag_uart_read.o)
 .comment       0x000000000000002d       0x2e c:/users/bdunne/source/lcd_camera_example/lcd_camera_bsp\libhal_bsp.a(altera_avalon_jtag_uart_write.o)
 .comment       0x000000000000002d       0x2e c:/users/bdunne/source/lcd_camera_example/lcd_camera_bsp\libhal_bsp.a(altera_avalon_timer_sc.o)
 .comment       0x000000000000002d       0x2e c:/users/bdunne/source/lcd_camera_example/lcd_camera_bsp\libhal_bsp.a(dma_avalon_st_sink_to_mm_master.o)
 .comment       0x000000000000002d       0x2e c:/users/bdunne/source/lcd_camera_example/lcd_camera_bsp\libhal_bsp.a(lcd8080.o)
 .comment       0x000000000000002d       0x2e c:/users/bdunne/source/lcd_camera_example/lcd_camera_bsp\libhal_bsp.a(alt_alarm_start.o)
 .comment       0x000000000000002d       0x2e c:/users/bdunne/source/lcd_camera_example/lcd_camera_bsp\libhal_bsp.a(alt_busy_sleep.o)
 .comment       0x000000000000002d       0x2e c:/users/bdunne/source/lcd_camera_example/lcd_camera_bsp\libhal_bsp.a(alt_dcache_flush_all.o)
 .comment       0x000000000000002d       0x2e c:/users/bdunne/source/lcd_camera_example/lcd_camera_bsp\libhal_bsp.a(alt_dev_llist_insert.o)
 .comment       0x000000000000002d       0x2e c:/users/bdunne/source/lcd_camera_example/lcd_camera_bsp\libhal_bsp.a(alt_do_ctors.o)
 .comment       0x000000000000002d       0x2e c:/users/bdunne/source/lcd_camera_example/lcd_camera_bsp\libhal_bsp.a(alt_do_dtors.o)
 .comment       0x000000000000002d       0x2e c:/users/bdunne/source/lcd_camera_example/lcd_camera_bsp\libhal_bsp.a(alt_find_dev.o)
 .comment       0x000000000000002d       0x2e c:/users/bdunne/source/lcd_camera_example/lcd_camera_bsp\libhal_bsp.a(alt_icache_flush_all.o)
 .comment       0x000000000000002d       0x2e c:/users/bdunne/source/lcd_camera_example/lcd_camera_bsp\libhal_bsp.a(alt_iic.o)
 .comment       0x000000000000002d       0x2e c:/users/bdunne/source/lcd_camera_example/lcd_camera_bsp\libhal_bsp.a(alt_iic_isr_register.o)
 .comment       0x000000000000002d       0x2e c:/users/bdunne/source/lcd_camera_example/lcd_camera_bsp\libhal_bsp.a(alt_io_redirect.o)
 .comment       0x000000000000002d       0x2e c:/users/bdunne/source/lcd_camera_example/lcd_camera_bsp\libhal_bsp.a(alt_irq_handler.o)
 .comment       0x000000000000002d       0x2e c:/users/bdunne/source/lcd_camera_example/lcd_camera_bsp\libhal_bsp.a(alt_irq_vars.o)
 .comment       0x000000000000002d       0x2e c:/users/bdunne/source/lcd_camera_example/lcd_camera_bsp\libhal_bsp.a(alt_open.o)
 .comment       0x000000000000002d       0x2e c:/users/bdunne/source/lcd_camera_example/lcd_camera_bsp\libhal_bsp.a(alt_printf.o)
 .comment       0x000000000000002d       0x2e c:/users/bdunne/source/lcd_camera_example/lcd_camera_bsp\libhal_bsp.a(alt_putchar.o)
 .comment       0x000000000000002d       0x2e c:/users/bdunne/source/lcd_camera_example/lcd_camera_bsp\libhal_bsp.a(alt_tick.o)
 .comment       0x000000000000002d       0x2e c:/users/bdunne/source/lcd_camera_example/lcd_camera_bsp\libhal_bsp.a(altera_nios2_gen2_irq.o)
 .comment       0x000000000000002d       0x2e c:/users/bdunne/source/lcd_camera_example/lcd_camera_bsp\libhal_bsp.a(alt_find_file.o)
 .comment       0x000000000000002d       0x2e c:/users/bdunne/source/lcd_camera_example/lcd_camera_bsp\libhal_bsp.a(alt_get_fd.o)
 .comment       0x000000000000002d       0x2e c:/users/bdunne/source/lcd_camera_example/lcd_camera_bsp\libhal_bsp.a(alt_icache_flush.o)
 .comment       0x000000000000002d       0x2e c:/users/bdunne/source/lcd_camera_example/lcd_camera_bsp\libhal_bsp.a(alt_instruction_exception_entry.o)
 .comment       0x000000000000002d       0x2e c:/intelfpga_lite/20.1/nios2eds/bin/gnu/h-x86_64-mingw32/bin/../lib/gcc/nios2-elf/10.1.1/../../../../../H-x86_64-mingw32/nios2-elf/lib/mhw-mulx\libc.a(lib_a-atexit.o)
 .comment       0x000000000000002d       0x2e c:/intelfpga_lite/20.1/nios2eds/bin/gnu/h-x86_64-mingw32/bin/../lib/gcc/nios2-elf/10.1.1/../../../../../H-x86_64-mingw32/nios2-elf/lib/mhw-mulx\libc.a(lib_a-exit.o)
 .comment       0x000000000000002d       0x2e c:/intelfpga_lite/20.1/nios2eds/bin/gnu/h-x86_64-mingw32/bin/../lib/gcc/nios2-elf/10.1.1/../../../../../H-x86_64-mingw32/nios2-elf/lib/mhw-mulx\libc.a(lib_a-memcmp.o)
 .comment       0x000000000000002d       0x2e c:/intelfpga_lite/20.1/nios2eds/bin/gnu/h-x86_64-mingw32/bin/../lib/gcc/nios2-elf/10.1.1/../../../../../H-x86_64-mingw32/nios2-elf/lib/mhw-mulx\libc.a(lib_a-putchar.o)
 .comment       0x000000000000002d       0x2e c:/intelfpga_lite/20.1/nios2eds/bin/gnu/h-x86_64-mingw32/bin/../lib/gcc/nios2-elf/10.1.1/../../../../../H-x86_64-mingw32/nios2-elf/lib/mhw-mulx\libc.a(lib_a-__atexit.o)
 .comment       0x000000000000002d       0x2e c:/intelfpga_lite/20.1/nios2eds/bin/gnu/h-x86_64-mingw32/bin/../lib/gcc/nios2-elf/10.1.1/../../../../../H-x86_64-mingw32/nios2-elf/lib/mhw-mulx\libc.a(lib_a-__call_atexit.o)
 .comment       0x000000000000002d       0x2e c:/intelfpga_lite/20.1/nios2eds/bin/gnu/h-x86_64-mingw32/bin/../lib/gcc/nios2-elf/10.1.1/../../../../../H-x86_64-mingw32/nios2-elf/lib/mhw-mulx\libc.a(lib_a-putc.o)
 .comment       0x000000000000002d       0x2e c:/intelfpga_lite/20.1/nios2eds/bin/gnu/h-x86_64-mingw32/bin/../lib/gcc/nios2-elf/10.1.1/../../../../../H-x86_64-mingw32/nios2-elf/lib/mhw-mulx\libc.a(lib_a-wbuf.o)
 .comment       0x000000000000002d       0x2e c:/users/bdunne/source/lcd_camera_example/lcd_camera_bsp\libhal_bsp.a(alt_exit.o)

.debug
 *(.debug)

.line
 *(.line)

.debug_srcinfo
 *(.debug_srcinfo)

.debug_sfnames
 *(.debug_sfnames)

.debug_aranges  0x0000000000000000      0xc70
 *(.debug_aranges)
 .debug_aranges
                0x0000000000000000       0x28 c:/users/bdunne/source/lcd_camera_example/lcd_camera_bsp/obj/HAL/src/crt0.o
 .debug_aranges
                0x0000000000000028       0x20 obj/default/camera.o
 .debug_aranges
                0x0000000000000048       0x20 obj/default/main.o
 .debug_aranges
                0x0000000000000068       0x20 c:/intelfpga_lite/20.1/nios2eds/bin/gnu/h-x86_64-mingw32/bin/../lib/gcc/nios2-elf/10.1.1/mhw-mulx\libgcc.a(_fixunssfsi.o)
 .debug_aranges
                0x0000000000000088       0x20 c:/intelfpga_lite/20.1/nios2eds/bin/gnu/h-x86_64-mingw32/bin/../lib/gcc/nios2-elf/10.1.1/mhw-mulx\libgcc.a(gesf2.o)
 .debug_aranges
                0x00000000000000a8       0x20 c:/intelfpga_lite/20.1/nios2eds/bin/gnu/h-x86_64-mingw32/bin/../lib/gcc/nios2-elf/10.1.1/mhw-mulx\libgcc.a(subsf3.o)
 .debug_aranges
                0x00000000000000c8       0x20 c:/intelfpga_lite/20.1/nios2eds/bin/gnu/h-x86_64-mingw32/bin/../lib/gcc/nios2-elf/10.1.1/mhw-mulx\libgcc.a(fixsfsi.o)
 .debug_aranges
                0x00000000000000e8       0x20 c:/intelfpga_lite/20.1/nios2eds/bin/gnu/h-x86_64-mingw32/bin/../lib/gcc/nios2-elf/10.1.1/mhw-mulx\libgcc.a(floatsisf.o)
 .debug_aranges
                0x0000000000000108       0x20 c:/intelfpga_lite/20.1/nios2eds/bin/gnu/h-x86_64-mingw32/bin/../lib/gcc/nios2-elf/10.1.1/mhw-mulx\libgcc.a(_clzsi2.o)
 .debug_aranges
                0x0000000000000128       0x18 c:/intelfpga_lite/20.1/nios2eds/bin/gnu/h-x86_64-mingw32/bin/../lib/gcc/nios2-elf/10.1.1/mhw-mulx\libgcc.a(_clz.o)
 .debug_aranges
                0x0000000000000140       0x28 c:/intelfpga_lite/20.1/nios2eds/bin/gnu/h-x86_64-mingw32/bin/../lib/gcc/nios2-elf/10.1.1/../../../../../H-x86_64-mingw32/nios2-elf/lib/mhw-mulx\libc.a(lib_a-puts.o)
 .debug_aranges
                0x0000000000000168       0x20 c:/intelfpga_lite/20.1/nios2eds/bin/gnu/h-x86_64-mingw32/bin/../lib/gcc/nios2-elf/10.1.1/../../../../../H-x86_64-mingw32/nios2-elf/lib/mhw-mulx\libc.a(lib_a-strlen.o)
 .debug_aranges
                0x0000000000000188       0x68 c:/intelfpga_lite/20.1/nios2eds/bin/gnu/h-x86_64-mingw32/bin/../lib/gcc/nios2-elf/10.1.1/../../../../../H-x86_64-mingw32/nios2-elf/lib/mhw-mulx\libc.a(lib_a-findfp.o)
 .debug_aranges
                0x00000000000001f0       0x20 c:/intelfpga_lite/20.1/nios2eds/bin/gnu/h-x86_64-mingw32/bin/../lib/gcc/nios2-elf/10.1.1/../../../../../H-x86_64-mingw32/nios2-elf/lib/mhw-mulx\libc.a(lib_a-fvwrite.o)
 .debug_aranges
                0x0000000000000210       0x28 c:/intelfpga_lite/20.1/nios2eds/bin/gnu/h-x86_64-mingw32/bin/../lib/gcc/nios2-elf/10.1.1/../../../../../H-x86_64-mingw32/nios2-elf/lib/mhw-mulx\libc.a(lib_a-fwalk.o)
 .debug_aranges
                0x0000000000000238       0x18 c:/intelfpga_lite/20.1/nios2eds/bin/gnu/h-x86_64-mingw32/bin/../lib/gcc/nios2-elf/10.1.1/../../../../../H-x86_64-mingw32/nios2-elf/lib/mhw-mulx\libc.a(lib_a-impure.o)
 .debug_aranges
                0x0000000000000250       0x20 c:/intelfpga_lite/20.1/nios2eds/bin/gnu/h-x86_64-mingw32/bin/../lib/gcc/nios2-elf/10.1.1/../../../../../H-x86_64-mingw32/nios2-elf/lib/mhw-mulx\libc.a(lib_a-mallocr.o)
 .debug_aranges
                0x0000000000000270       0x20 c:/intelfpga_lite/20.1/nios2eds/bin/gnu/h-x86_64-mingw32/bin/../lib/gcc/nios2-elf/10.1.1/../../../../../H-x86_64-mingw32/nios2-elf/lib/mhw-mulx\libc.a(lib_a-memchr.o)
 .debug_aranges
                0x0000000000000290       0x20 c:/intelfpga_lite/20.1/nios2eds/bin/gnu/h-x86_64-mingw32/bin/../lib/gcc/nios2-elf/10.1.1/../../../../../H-x86_64-mingw32/nios2-elf/lib/mhw-mulx\libc.a(lib_a-memcpy.o)
 .debug_aranges
                0x00000000000002b0       0x20 c:/intelfpga_lite/20.1/nios2eds/bin/gnu/h-x86_64-mingw32/bin/../lib/gcc/nios2-elf/10.1.1/../../../../../H-x86_64-mingw32/nios2-elf/lib/mhw-mulx\libc.a(lib_a-memmove.o)
 .debug_aranges
                0x00000000000002d0       0x20 c:/intelfpga_lite/20.1/nios2eds/bin/gnu/h-x86_64-mingw32/bin/../lib/gcc/nios2-elf/10.1.1/../../../../../H-x86_64-mingw32/nios2-elf/lib/mhw-mulx\libc.a(lib_a-memset.o)
 .debug_aranges
                0x00000000000002f0       0x20 c:/intelfpga_lite/20.1/nios2eds/bin/gnu/h-x86_64-mingw32/bin/../lib/gcc/nios2-elf/10.1.1/../../../../../H-x86_64-mingw32/nios2-elf/lib/mhw-mulx\libc.a(lib_a-reallocr.o)
 .debug_aranges
                0x0000000000000310       0x20 c:/intelfpga_lite/20.1/nios2eds/bin/gnu/h-x86_64-mingw32/bin/../lib/gcc/nios2-elf/10.1.1/../../../../../H-x86_64-mingw32/nios2-elf/lib/mhw-mulx\libc.a(lib_a-sbrkr.o)
 .debug_aranges
                0x0000000000000330       0x40 c:/intelfpga_lite/20.1/nios2eds/bin/gnu/h-x86_64-mingw32/bin/../lib/gcc/nios2-elf/10.1.1/../../../../../H-x86_64-mingw32/nios2-elf/lib/mhw-mulx\libc.a(lib_a-stdio.o)
 .debug_aranges
                0x0000000000000370       0x20 c:/intelfpga_lite/20.1/nios2eds/bin/gnu/h-x86_64-mingw32/bin/../lib/gcc/nios2-elf/10.1.1/../../../../../H-x86_64-mingw32/nios2-elf/lib/mhw-mulx\libc.a(lib_a-writer.o)
 .debug_aranges
                0x0000000000000390       0x20 c:/intelfpga_lite/20.1/nios2eds/bin/gnu/h-x86_64-mingw32/bin/../lib/gcc/nios2-elf/10.1.1/../../../../../H-x86_64-mingw32/nios2-elf/lib/mhw-mulx\libc.a(lib_a-wsetup.o)
 .debug_aranges
                0x00000000000003b0       0x20 c:/intelfpga_lite/20.1/nios2eds/bin/gnu/h-x86_64-mingw32/bin/../lib/gcc/nios2-elf/10.1.1/../../../../../H-x86_64-mingw32/nios2-elf/lib/mhw-mulx\libc.a(closer.o)
 .debug_aranges
                0x00000000000003d0       0x30 c:/intelfpga_lite/20.1/nios2eds/bin/gnu/h-x86_64-mingw32/bin/../lib/gcc/nios2-elf/10.1.1/../../../../../H-x86_64-mingw32/nios2-elf/lib/mhw-mulx\libc.a(lib_a-fclose.o)
 .debug_aranges
                0x0000000000000400       0x30 c:/intelfpga_lite/20.1/nios2eds/bin/gnu/h-x86_64-mingw32/bin/../lib/gcc/nios2-elf/10.1.1/../../../../../H-x86_64-mingw32/nios2-elf/lib/mhw-mulx\libc.a(lib_a-fflush.o)
 .debug_aranges
                0x0000000000000430       0x28 c:/intelfpga_lite/20.1/nios2eds/bin/gnu/h-x86_64-mingw32/bin/../lib/gcc/nios2-elf/10.1.1/../../../../../H-x86_64-mingw32/nios2-elf/lib/mhw-mulx\libc.a(lib_a-freer.o)
 .debug_aranges
                0x0000000000000458       0x18 c:/intelfpga_lite/20.1/nios2eds/bin/gnu/h-x86_64-mingw32/bin/../lib/gcc/nios2-elf/10.1.1/../../../../../H-x86_64-mingw32/nios2-elf/lib/mhw-mulx\libc.a(lib_a-int_errno.o)
 .debug_aranges
                0x0000000000000470       0x20 c:/intelfpga_lite/20.1/nios2eds/bin/gnu/h-x86_64-mingw32/bin/../lib/gcc/nios2-elf/10.1.1/../../../../../H-x86_64-mingw32/nios2-elf/lib/mhw-mulx\libc.a(lib_a-lseekr.o)
 .debug_aranges
                0x0000000000000490       0x28 c:/intelfpga_lite/20.1/nios2eds/bin/gnu/h-x86_64-mingw32/bin/../lib/gcc/nios2-elf/10.1.1/../../../../../H-x86_64-mingw32/nios2-elf/lib/mhw-mulx\libc.a(lib_a-makebuf.o)
 .debug_aranges
                0x00000000000004b8       0x20 c:/intelfpga_lite/20.1/nios2eds/bin/gnu/h-x86_64-mingw32/bin/../lib/gcc/nios2-elf/10.1.1/../../../../../H-x86_64-mingw32/nios2-elf/lib/mhw-mulx\libc.a(lib_a-readr.o)
 .debug_aranges
                0x00000000000004d8       0x20 c:/intelfpga_lite/20.1/nios2eds/bin/gnu/h-x86_64-mingw32/bin/../lib/gcc/nios2-elf/10.1.1/../../../../../H-x86_64-mingw32/nios2-elf/lib/mhw-mulx\libc.a(lib_a-fstatr.o)
 .debug_aranges
                0x00000000000004f8       0x20 c:/intelfpga_lite/20.1/nios2eds/bin/gnu/h-x86_64-mingw32/bin/../lib/gcc/nios2-elf/10.1.1/../../../../../H-x86_64-mingw32/nios2-elf/lib/mhw-mulx\libc.a(lib_a-isattyr.o)
 .debug_aranges
                0x0000000000000518       0x20 c:/intelfpga_lite/20.1/nios2eds/bin/gnu/h-x86_64-mingw32/bin/../lib/gcc/nios2-elf/10.1.1/mhw-mulx\libgcc.a(lib2-divmod.o)
 .debug_aranges
                0x0000000000000538       0x20 c:/users/bdunne/source/lcd_camera_example/lcd_camera_bsp\libhal_bsp.a(alt_close.o)
 .debug_aranges
                0x0000000000000558       0x20 c:/users/bdunne/source/lcd_camera_example/lcd_camera_bsp\libhal_bsp.a(alt_dev.o)
 .debug_aranges
                0x0000000000000578       0x18 c:/users/bdunne/source/lcd_camera_example/lcd_camera_bsp\libhal_bsp.a(alt_errno.o)
 .debug_aranges
                0x0000000000000590       0x20 c:/users/bdunne/source/lcd_camera_example/lcd_camera_bsp\libhal_bsp.a(alt_fstat.o)
 .debug_aranges
                0x00000000000005b0       0x20 c:/users/bdunne/source/lcd_camera_example/lcd_camera_bsp\libhal_bsp.a(alt_isatty.o)
 .debug_aranges
                0x00000000000005d0       0x20 c:/users/bdunne/source/lcd_camera_example/lcd_camera_bsp\libhal_bsp.a(alt_load.o)
 .debug_aranges
                0x00000000000005f0       0x20 c:/users/bdunne/source/lcd_camera_example/lcd_camera_bsp\libhal_bsp.a(alt_lseek.o)
 .debug_aranges
                0x0000000000000610       0x20 c:/users/bdunne/source/lcd_camera_example/lcd_camera_bsp\libhal_bsp.a(alt_main.o)
 .debug_aranges
                0x0000000000000630       0x20 c:/users/bdunne/source/lcd_camera_example/lcd_camera_bsp\libhal_bsp.a(alt_malloc_lock.o)
 .debug_aranges
                0x0000000000000650       0x20 c:/users/bdunne/source/lcd_camera_example/lcd_camera_bsp\libhal_bsp.a(alt_read.o)
 .debug_aranges
                0x0000000000000670       0x20 c:/users/bdunne/source/lcd_camera_example/lcd_camera_bsp\libhal_bsp.a(alt_release_fd.o)
 .debug_aranges
                0x0000000000000690       0x20 c:/users/bdunne/source/lcd_camera_example/lcd_camera_bsp\libhal_bsp.a(alt_sbrk.o)
 .debug_aranges
                0x00000000000006b0       0x20 c:/users/bdunne/source/lcd_camera_example/lcd_camera_bsp\libhal_bsp.a(alt_write.o)
 .debug_aranges
                0x00000000000006d0       0x20 c:/users/bdunne/source/lcd_camera_example/lcd_camera_bsp\libhal_bsp.a(alt_sys_init.o)
 .debug_aranges
                0x00000000000006f0       0x20 c:/users/bdunne/source/lcd_camera_example/lcd_camera_bsp\libhal_bsp.a(altera_avalon_i2c.o)
 .debug_aranges
                0x0000000000000710       0x20 c:/users/bdunne/source/lcd_camera_example/lcd_camera_bsp\libhal_bsp.a(altera_avalon_jtag_uart_fd.o)
 .debug_aranges
                0x0000000000000730       0x20 c:/users/bdunne/source/lcd_camera_example/lcd_camera_bsp\libhal_bsp.a(altera_avalon_jtag_uart_init.o)
 .debug_aranges
                0x0000000000000750       0x20 c:/users/bdunne/source/lcd_camera_example/lcd_camera_bsp\libhal_bsp.a(altera_avalon_jtag_uart_ioctl.o)
 .debug_aranges
                0x0000000000000770       0x20 c:/users/bdunne/source/lcd_camera_example/lcd_camera_bsp\libhal_bsp.a(altera_avalon_jtag_uart_read.o)
 .debug_aranges
                0x0000000000000790       0x20 c:/users/bdunne/source/lcd_camera_example/lcd_camera_bsp\libhal_bsp.a(altera_avalon_jtag_uart_write.o)
 .debug_aranges
                0x00000000000007b0       0x20 c:/users/bdunne/source/lcd_camera_example/lcd_camera_bsp\libhal_bsp.a(altera_avalon_timer_sc.o)
 .debug_aranges
                0x00000000000007d0       0x20 c:/users/bdunne/source/lcd_camera_example/lcd_camera_bsp\libhal_bsp.a(dma_avalon_st_sink_to_mm_master.o)
 .debug_aranges
                0x00000000000007f0       0x20 c:/users/bdunne/source/lcd_camera_example/lcd_camera_bsp\libhal_bsp.a(lcd8080.o)
 .debug_aranges
                0x0000000000000810       0x20 c:/users/bdunne/source/lcd_camera_example/lcd_camera_bsp\libhal_bsp.a(alt_alarm_start.o)
 .debug_aranges
                0x0000000000000830       0x20 c:/users/bdunne/source/lcd_camera_example/lcd_camera_bsp\libhal_bsp.a(alt_busy_sleep.o)
 .debug_aranges
                0x0000000000000850       0x20 c:/users/bdunne/source/lcd_camera_example/lcd_camera_bsp\libhal_bsp.a(alt_dcache_flush_all.o)
 .debug_aranges
                0x0000000000000870       0x20 c:/users/bdunne/source/lcd_camera_example/lcd_camera_bsp\libhal_bsp.a(alt_dev_llist_insert.o)
 .debug_aranges
                0x0000000000000890       0x20 c:/users/bdunne/source/lcd_camera_example/lcd_camera_bsp\libhal_bsp.a(alt_do_ctors.o)
 .debug_aranges
                0x00000000000008b0       0x20 c:/users/bdunne/source/lcd_camera_example/lcd_camera_bsp\libhal_bsp.a(alt_do_dtors.o)
 .debug_aranges
                0x00000000000008d0       0x20 c:/users/bdunne/source/lcd_camera_example/lcd_camera_bsp\libhal_bsp.a(alt_find_dev.o)
 .debug_aranges
                0x00000000000008f0       0x20 c:/users/bdunne/source/lcd_camera_example/lcd_camera_bsp\libhal_bsp.a(alt_icache_flush_all.o)
 .debug_aranges
                0x0000000000000910       0x20 c:/users/bdunne/source/lcd_camera_example/lcd_camera_bsp\libhal_bsp.a(alt_iic.o)
 .debug_aranges
                0x0000000000000930       0x20 c:/users/bdunne/source/lcd_camera_example/lcd_camera_bsp\libhal_bsp.a(alt_iic_isr_register.o)
 .debug_aranges
                0x0000000000000950       0x20 c:/users/bdunne/source/lcd_camera_example/lcd_camera_bsp\libhal_bsp.a(alt_io_redirect.o)
 .debug_aranges
                0x0000000000000970       0x30 c:/users/bdunne/source/lcd_camera_example/lcd_camera_bsp\libhal_bsp.a(alt_irq_entry.o)
 .debug_aranges
                0x00000000000009a0       0x20 c:/users/bdunne/source/lcd_camera_example/lcd_camera_bsp\libhal_bsp.a(alt_irq_handler.o)
 .debug_aranges
                0x00000000000009c0       0x18 c:/users/bdunne/source/lcd_camera_example/lcd_camera_bsp\libhal_bsp.a(alt_irq_vars.o)
 .debug_aranges
                0x00000000000009d8       0x20 c:/users/bdunne/source/lcd_camera_example/lcd_camera_bsp\libhal_bsp.a(alt_open.o)
 .debug_aranges
                0x00000000000009f8       0x20 c:/users/bdunne/source/lcd_camera_example/lcd_camera_bsp\libhal_bsp.a(alt_printf.o)
 .debug_aranges
                0x0000000000000a18       0x20 c:/users/bdunne/source/lcd_camera_example/lcd_camera_bsp\libhal_bsp.a(alt_putchar.o)
 .debug_aranges
                0x0000000000000a38       0x20 c:/users/bdunne/source/lcd_camera_example/lcd_camera_bsp\libhal_bsp.a(alt_tick.o)
 .debug_aranges
                0x0000000000000a58       0x20 c:/users/bdunne/source/lcd_camera_example/lcd_camera_bsp\libhal_bsp.a(altera_nios2_gen2_irq.o)
 .debug_aranges
                0x0000000000000a78       0x38 c:/users/bdunne/source/lcd_camera_example/lcd_camera_bsp\libhal_bsp.a(alt_exception_entry.o)
 .debug_aranges
                0x0000000000000ab0       0x20 c:/users/bdunne/source/lcd_camera_example/lcd_camera_bsp\libhal_bsp.a(alt_find_file.o)
 .debug_aranges
                0x0000000000000ad0       0x20 c:/users/bdunne/source/lcd_camera_example/lcd_camera_bsp\libhal_bsp.a(alt_get_fd.o)
 .debug_aranges
                0x0000000000000af0       0x20 c:/users/bdunne/source/lcd_camera_example/lcd_camera_bsp\libhal_bsp.a(alt_icache_flush.o)
 .debug_aranges
                0x0000000000000b10       0x28 c:/users/bdunne/source/lcd_camera_example/lcd_camera_bsp\libhal_bsp.a(alt_instruction_exception_entry.o)
 .debug_aranges
                0x0000000000000b38       0x20 c:/intelfpga_lite/20.1/nios2eds/bin/gnu/h-x86_64-mingw32/bin/../lib/gcc/nios2-elf/10.1.1/../../../../../H-x86_64-mingw32/nios2-elf/lib/mhw-mulx\libc.a(lib_a-atexit.o)
 .debug_aranges
                0x0000000000000b58       0x20 c:/intelfpga_lite/20.1/nios2eds/bin/gnu/h-x86_64-mingw32/bin/../lib/gcc/nios2-elf/10.1.1/../../../../../H-x86_64-mingw32/nios2-elf/lib/mhw-mulx\libc.a(lib_a-exit.o)
 .debug_aranges
                0x0000000000000b78       0x20 c:/intelfpga_lite/20.1/nios2eds/bin/gnu/h-x86_64-mingw32/bin/../lib/gcc/nios2-elf/10.1.1/../../../../../H-x86_64-mingw32/nios2-elf/lib/mhw-mulx\libc.a(lib_a-memcmp.o)
 .debug_aranges
                0x0000000000000b98       0x28 c:/intelfpga_lite/20.1/nios2eds/bin/gnu/h-x86_64-mingw32/bin/../lib/gcc/nios2-elf/10.1.1/../../../../../H-x86_64-mingw32/nios2-elf/lib/mhw-mulx\libc.a(lib_a-putchar.o)
 .debug_aranges
                0x0000000000000bc0       0x20 c:/intelfpga_lite/20.1/nios2eds/bin/gnu/h-x86_64-mingw32/bin/../lib/gcc/nios2-elf/10.1.1/../../../../../H-x86_64-mingw32/nios2-elf/lib/mhw-mulx\libc.a(lib_a-__atexit.o)
 .debug_aranges
                0x0000000000000be0       0x20 c:/intelfpga_lite/20.1/nios2eds/bin/gnu/h-x86_64-mingw32/bin/../lib/gcc/nios2-elf/10.1.1/../../../../../H-x86_64-mingw32/nios2-elf/lib/mhw-mulx\libc.a(lib_a-__call_atexit.o)
 .debug_aranges
                0x0000000000000c00       0x28 c:/intelfpga_lite/20.1/nios2eds/bin/gnu/h-x86_64-mingw32/bin/../lib/gcc/nios2-elf/10.1.1/../../../../../H-x86_64-mingw32/nios2-elf/lib/mhw-mulx\libc.a(lib_a-putc.o)
 .debug_aranges
                0x0000000000000c28       0x28 c:/intelfpga_lite/20.1/nios2eds/bin/gnu/h-x86_64-mingw32/bin/../lib/gcc/nios2-elf/10.1.1/../../../../../H-x86_64-mingw32/nios2-elf/lib/mhw-mulx\libc.a(lib_a-wbuf.o)
 .debug_aranges
                0x0000000000000c50       0x20 c:/users/bdunne/source/lcd_camera_example/lcd_camera_bsp\libhal_bsp.a(alt_exit.o)

.debug_pubnames
 *(.debug_pubnames)

.debug_info     0x0000000000000000    0x1d265
 *(.debug_info .gnu.linkonce.wi.*)
 .debug_info    0x0000000000000000       0x22 c:/users/bdunne/source/lcd_camera_example/lcd_camera_bsp/obj/HAL/src/crt0.o
 .debug_info    0x0000000000000022      0x5c0 obj/default/camera.o
 .debug_info    0x00000000000005e2      0x43c obj/default/main.o
 .debug_info    0x0000000000000a1e      0x11a c:/intelfpga_lite/20.1/nios2eds/bin/gnu/h-x86_64-mingw32/bin/../lib/gcc/nios2-elf/10.1.1/mhw-mulx\libgcc.a(_fixunssfsi.o)
 .debug_info    0x0000000000000b38      0x23e c:/intelfpga_lite/20.1/nios2eds/bin/gnu/h-x86_64-mingw32/bin/../lib/gcc/nios2-elf/10.1.1/mhw-mulx\libgcc.a(gesf2.o)
 .debug_info    0x0000000000000d76      0x363 c:/intelfpga_lite/20.1/nios2eds/bin/gnu/h-x86_64-mingw32/bin/../lib/gcc/nios2-elf/10.1.1/mhw-mulx\libgcc.a(subsf3.o)
 .debug_info    0x00000000000010d9      0x1cd c:/intelfpga_lite/20.1/nios2eds/bin/gnu/h-x86_64-mingw32/bin/../lib/gcc/nios2-elf/10.1.1/mhw-mulx\libgcc.a(fixsfsi.o)
 .debug_info    0x00000000000012a6      0x24f c:/intelfpga_lite/20.1/nios2eds/bin/gnu/h-x86_64-mingw32/bin/../lib/gcc/nios2-elf/10.1.1/mhw-mulx\libgcc.a(floatsisf.o)
 .debug_info    0x00000000000014f5      0x133 c:/intelfpga_lite/20.1/nios2eds/bin/gnu/h-x86_64-mingw32/bin/../lib/gcc/nios2-elf/10.1.1/mhw-mulx\libgcc.a(_clzsi2.o)
 .debug_info    0x0000000000001628       0xc2 c:/intelfpga_lite/20.1/nios2eds/bin/gnu/h-x86_64-mingw32/bin/../lib/gcc/nios2-elf/10.1.1/mhw-mulx\libgcc.a(_clz.o)
 .debug_info    0x00000000000016ea      0xae3 c:/intelfpga_lite/20.1/nios2eds/bin/gnu/h-x86_64-mingw32/bin/../lib/gcc/nios2-elf/10.1.1/../../../../../H-x86_64-mingw32/nios2-elf/lib/mhw-mulx\libc.a(lib_a-puts.o)
 .debug_info    0x00000000000021cd       0xee c:/intelfpga_lite/20.1/nios2eds/bin/gnu/h-x86_64-mingw32/bin/../lib/gcc/nios2-elf/10.1.1/../../../../../H-x86_64-mingw32/nios2-elf/lib/mhw-mulx\libc.a(lib_a-strlen.o)
 .debug_info    0x00000000000022bb      0xee9 c:/intelfpga_lite/20.1/nios2eds/bin/gnu/h-x86_64-mingw32/bin/../lib/gcc/nios2-elf/10.1.1/../../../../../H-x86_64-mingw32/nios2-elf/lib/mhw-mulx\libc.a(lib_a-findfp.o)
 .debug_info    0x00000000000031a4      0xca0 c:/intelfpga_lite/20.1/nios2eds/bin/gnu/h-x86_64-mingw32/bin/../lib/gcc/nios2-elf/10.1.1/../../../../../H-x86_64-mingw32/nios2-elf/lib/mhw-mulx\libc.a(lib_a-fvwrite.o)
 .debug_info    0x0000000000003e44      0xa6d c:/intelfpga_lite/20.1/nios2eds/bin/gnu/h-x86_64-mingw32/bin/../lib/gcc/nios2-elf/10.1.1/../../../../../H-x86_64-mingw32/nios2-elf/lib/mhw-mulx\libc.a(lib_a-fwalk.o)
 .debug_info    0x00000000000048b1      0x931 c:/intelfpga_lite/20.1/nios2eds/bin/gnu/h-x86_64-mingw32/bin/../lib/gcc/nios2-elf/10.1.1/../../../../../H-x86_64-mingw32/nios2-elf/lib/mhw-mulx\libc.a(lib_a-impure.o)
 .debug_info    0x00000000000051e2      0xe9a c:/intelfpga_lite/20.1/nios2eds/bin/gnu/h-x86_64-mingw32/bin/../lib/gcc/nios2-elf/10.1.1/../../../../../H-x86_64-mingw32/nios2-elf/lib/mhw-mulx\libc.a(lib_a-mallocr.o)
 .debug_info    0x000000000000607c      0x155 c:/intelfpga_lite/20.1/nios2eds/bin/gnu/h-x86_64-mingw32/bin/../lib/gcc/nios2-elf/10.1.1/../../../../../H-x86_64-mingw32/nios2-elf/lib/mhw-mulx\libc.a(lib_a-memchr.o)
 .debug_info    0x00000000000061d1      0x162 c:/intelfpga_lite/20.1/nios2eds/bin/gnu/h-x86_64-mingw32/bin/../lib/gcc/nios2-elf/10.1.1/../../../../../H-x86_64-mingw32/nios2-elf/lib/mhw-mulx\libc.a(lib_a-memcpy.o)
 .debug_info    0x0000000000006333      0x158 c:/intelfpga_lite/20.1/nios2eds/bin/gnu/h-x86_64-mingw32/bin/../lib/gcc/nios2-elf/10.1.1/../../../../../H-x86_64-mingw32/nios2-elf/lib/mhw-mulx\libc.a(lib_a-memmove.o)
 .debug_info    0x000000000000648b      0x13d c:/intelfpga_lite/20.1/nios2eds/bin/gnu/h-x86_64-mingw32/bin/../lib/gcc/nios2-elf/10.1.1/../../../../../H-x86_64-mingw32/nios2-elf/lib/mhw-mulx\libc.a(lib_a-memset.o)
 .debug_info    0x00000000000065c8      0xd8d c:/intelfpga_lite/20.1/nios2eds/bin/gnu/h-x86_64-mingw32/bin/../lib/gcc/nios2-elf/10.1.1/../../../../../H-x86_64-mingw32/nios2-elf/lib/mhw-mulx\libc.a(lib_a-reallocr.o)
 .debug_info    0x0000000000007355      0x994 c:/intelfpga_lite/20.1/nios2eds/bin/gnu/h-x86_64-mingw32/bin/../lib/gcc/nios2-elf/10.1.1/../../../../../H-x86_64-mingw32/nios2-elf/lib/mhw-mulx\libc.a(lib_a-sbrkr.o)
 .debug_info    0x0000000000007ce9      0xc23 c:/intelfpga_lite/20.1/nios2eds/bin/gnu/h-x86_64-mingw32/bin/../lib/gcc/nios2-elf/10.1.1/../../../../../H-x86_64-mingw32/nios2-elf/lib/mhw-mulx\libc.a(lib_a-stdio.o)
 .debug_info    0x000000000000890c      0x9c6 c:/intelfpga_lite/20.1/nios2eds/bin/gnu/h-x86_64-mingw32/bin/../lib/gcc/nios2-elf/10.1.1/../../../../../H-x86_64-mingw32/nios2-elf/lib/mhw-mulx\libc.a(lib_a-writer.o)
 .debug_info    0x00000000000092d2      0x9c9 c:/intelfpga_lite/20.1/nios2eds/bin/gnu/h-x86_64-mingw32/bin/../lib/gcc/nios2-elf/10.1.1/../../../../../H-x86_64-mingw32/nios2-elf/lib/mhw-mulx\libc.a(lib_a-wsetup.o)
 .debug_info    0x0000000000009c9b      0x971 c:/intelfpga_lite/20.1/nios2eds/bin/gnu/h-x86_64-mingw32/bin/../lib/gcc/nios2-elf/10.1.1/../../../../../H-x86_64-mingw32/nios2-elf/lib/mhw-mulx\libc.a(closer.o)
 .debug_info    0x000000000000a60c      0xb4b c:/intelfpga_lite/20.1/nios2eds/bin/gnu/h-x86_64-mingw32/bin/../lib/gcc/nios2-elf/10.1.1/../../../../../H-x86_64-mingw32/nios2-elf/lib/mhw-mulx\libc.a(lib_a-fclose.o)
 .debug_info    0x000000000000b157      0xbf6 c:/intelfpga_lite/20.1/nios2eds/bin/gnu/h-x86_64-mingw32/bin/../lib/gcc/nios2-elf/10.1.1/../../../../../H-x86_64-mingw32/nios2-elf/lib/mhw-mulx\libc.a(lib_a-fflush.o)
 .debug_info    0x000000000000bd4d      0xced c:/intelfpga_lite/20.1/nios2eds/bin/gnu/h-x86_64-mingw32/bin/../lib/gcc/nios2-elf/10.1.1/../../../../../H-x86_64-mingw32/nios2-elf/lib/mhw-mulx\libc.a(lib_a-freer.o)
 .debug_info    0x000000000000ca3a       0x84 c:/intelfpga_lite/20.1/nios2eds/bin/gnu/h-x86_64-mingw32/bin/../lib/gcc/nios2-elf/10.1.1/../../../../../H-x86_64-mingw32/nios2-elf/lib/mhw-mulx\libc.a(lib_a-int_errno.o)
 .debug_info    0x000000000000cabe      0x9a7 c:/intelfpga_lite/20.1/nios2eds/bin/gnu/h-x86_64-mingw32/bin/../lib/gcc/nios2-elf/10.1.1/../../../../../H-x86_64-mingw32/nios2-elf/lib/mhw-mulx\libc.a(lib_a-lseekr.o)
 .debug_info    0x000000000000d465      0xe0b c:/intelfpga_lite/20.1/nios2eds/bin/gnu/h-x86_64-mingw32/bin/../lib/gcc/nios2-elf/10.1.1/../../../../../H-x86_64-mingw32/nios2-elf/lib/mhw-mulx\libc.a(lib_a-makebuf.o)
 .debug_info    0x000000000000e270      0x9bf c:/intelfpga_lite/20.1/nios2eds/bin/gnu/h-x86_64-mingw32/bin/../lib/gcc/nios2-elf/10.1.1/../../../../../H-x86_64-mingw32/nios2-elf/lib/mhw-mulx\libc.a(lib_a-readr.o)
 .debug_info    0x000000000000ec2f      0xb8a c:/intelfpga_lite/20.1/nios2eds/bin/gnu/h-x86_64-mingw32/bin/../lib/gcc/nios2-elf/10.1.1/../../../../../H-x86_64-mingw32/nios2-elf/lib/mhw-mulx\libc.a(lib_a-fstatr.o)
 .debug_info    0x000000000000f7b9      0x971 c:/intelfpga_lite/20.1/nios2eds/bin/gnu/h-x86_64-mingw32/bin/../lib/gcc/nios2-elf/10.1.1/../../../../../H-x86_64-mingw32/nios2-elf/lib/mhw-mulx\libc.a(lib_a-isattyr.o)
 .debug_info    0x000000000001012a      0x368 c:/intelfpga_lite/20.1/nios2eds/bin/gnu/h-x86_64-mingw32/bin/../lib/gcc/nios2-elf/10.1.1/mhw-mulx\libgcc.a(lib2-divmod.o)
 .debug_info    0x0000000000010492      0x32c c:/users/bdunne/source/lcd_camera_example/lcd_camera_bsp\libhal_bsp.a(alt_close.o)
 .debug_info    0x00000000000107be      0x57d c:/users/bdunne/source/lcd_camera_example/lcd_camera_bsp\libhal_bsp.a(alt_dev.o)
 .debug_info    0x0000000000010d3b       0x9d c:/users/bdunne/source/lcd_camera_example/lcd_camera_bsp\libhal_bsp.a(alt_errno.o)
 .debug_info    0x0000000000010dd8      0x52a c:/users/bdunne/source/lcd_camera_example/lcd_camera_bsp\libhal_bsp.a(alt_fstat.o)
 .debug_info    0x0000000000011302      0x52d c:/users/bdunne/source/lcd_camera_example/lcd_camera_bsp\libhal_bsp.a(alt_isatty.o)
 .debug_info    0x000000000001182f      0x14d c:/users/bdunne/source/lcd_camera_example/lcd_camera_bsp\libhal_bsp.a(alt_load.o)
 .debug_info    0x000000000001197c      0x36d c:/users/bdunne/source/lcd_camera_example/lcd_camera_bsp\libhal_bsp.a(alt_lseek.o)
 .debug_info    0x0000000000011ce9       0xef c:/users/bdunne/source/lcd_camera_example/lcd_camera_bsp\libhal_bsp.a(alt_main.o)
 .debug_info    0x0000000000011dd8      0x938 c:/users/bdunne/source/lcd_camera_example/lcd_camera_bsp\libhal_bsp.a(alt_malloc_lock.o)
 .debug_info    0x0000000000012710      0x555 c:/users/bdunne/source/lcd_camera_example/lcd_camera_bsp\libhal_bsp.a(alt_read.o)
 .debug_info    0x0000000000012c65      0x2b9 c:/users/bdunne/source/lcd_camera_example/lcd_camera_bsp\libhal_bsp.a(alt_release_fd.o)
 .debug_info    0x0000000000012f1e      0x19c c:/users/bdunne/source/lcd_camera_example/lcd_camera_bsp\libhal_bsp.a(alt_sbrk.o)
 .debug_info    0x00000000000130ba      0x55c c:/users/bdunne/source/lcd_camera_example/lcd_camera_bsp\libhal_bsp.a(alt_write.o)
 .debug_info    0x0000000000013616      0x76d c:/users/bdunne/source/lcd_camera_example/lcd_camera_bsp\libhal_bsp.a(alt_sys_init.o)
 .debug_info    0x0000000000013d83     0x1174 c:/users/bdunne/source/lcd_camera_example/lcd_camera_bsp\libhal_bsp.a(altera_avalon_i2c.o)
 .debug_info    0x0000000000014ef7      0x53d c:/users/bdunne/source/lcd_camera_example/lcd_camera_bsp\libhal_bsp.a(altera_avalon_jtag_uart_fd.o)
 .debug_info    0x0000000000015434      0x3d0 c:/users/bdunne/source/lcd_camera_example/lcd_camera_bsp\libhal_bsp.a(altera_avalon_jtag_uart_init.o)
 .debug_info    0x0000000000015804      0x273 c:/users/bdunne/source/lcd_camera_example/lcd_camera_bsp\libhal_bsp.a(altera_avalon_jtag_uart_ioctl.o)
 .debug_info    0x0000000000015a77      0x336 c:/users/bdunne/source/lcd_camera_example/lcd_camera_bsp\libhal_bsp.a(altera_avalon_jtag_uart_read.o)
 .debug_info    0x0000000000015dad      0x331 c:/users/bdunne/source/lcd_camera_example/lcd_camera_bsp\libhal_bsp.a(altera_avalon_jtag_uart_write.o)
 .debug_info    0x00000000000160de      0x1d5 c:/users/bdunne/source/lcd_camera_example/lcd_camera_bsp\libhal_bsp.a(altera_avalon_timer_sc.o)
 .debug_info    0x00000000000162b3      0x5a6 c:/users/bdunne/source/lcd_camera_example/lcd_camera_bsp\libhal_bsp.a(dma_avalon_st_sink_to_mm_master.o)
 .debug_info    0x0000000000016859      0x276 c:/users/bdunne/source/lcd_camera_example/lcd_camera_bsp\libhal_bsp.a(lcd8080.o)
 .debug_info    0x0000000000016acf      0x2dd c:/users/bdunne/source/lcd_camera_example/lcd_camera_bsp\libhal_bsp.a(alt_alarm_start.o)
 .debug_info    0x0000000000016dac       0xd6 c:/users/bdunne/source/lcd_camera_example/lcd_camera_bsp\libhal_bsp.a(alt_busy_sleep.o)
 .debug_info    0x0000000000016e82       0x8c c:/users/bdunne/source/lcd_camera_example/lcd_camera_bsp\libhal_bsp.a(alt_dcache_flush_all.o)
 .debug_info    0x0000000000016f0e      0x1b0 c:/users/bdunne/source/lcd_camera_example/lcd_camera_bsp\libhal_bsp.a(alt_dev_llist_insert.o)
 .debug_info    0x00000000000170be       0x88 c:/users/bdunne/source/lcd_camera_example/lcd_camera_bsp\libhal_bsp.a(alt_do_ctors.o)
 .debug_info    0x0000000000017146       0x88 c:/users/bdunne/source/lcd_camera_example/lcd_camera_bsp\libhal_bsp.a(alt_do_dtors.o)
 .debug_info    0x00000000000171ce      0x2ee c:/users/bdunne/source/lcd_camera_example/lcd_camera_bsp\libhal_bsp.a(alt_find_dev.o)
 .debug_info    0x00000000000174bc       0x8c c:/users/bdunne/source/lcd_camera_example/lcd_camera_bsp\libhal_bsp.a(alt_icache_flush_all.o)
 .debug_info    0x0000000000017548      0x32c c:/users/bdunne/source/lcd_camera_example/lcd_camera_bsp\libhal_bsp.a(alt_iic.o)
 .debug_info    0x0000000000017874      0x1f0 c:/users/bdunne/source/lcd_camera_example/lcd_camera_bsp\libhal_bsp.a(alt_iic_isr_register.o)
 .debug_info    0x0000000000017a64      0x546 c:/users/bdunne/source/lcd_camera_example/lcd_camera_bsp\libhal_bsp.a(alt_io_redirect.o)
 .debug_info    0x0000000000017faa       0x22 c:/users/bdunne/source/lcd_camera_example/lcd_camera_bsp\libhal_bsp.a(alt_irq_entry.o)
 .debug_info    0x0000000000017fcc      0x175 c:/users/bdunne/source/lcd_camera_example/lcd_camera_bsp\libhal_bsp.a(alt_irq_handler.o)
 .debug_info    0x0000000000018141       0x8b c:/users/bdunne/source/lcd_camera_example/lcd_camera_bsp\libhal_bsp.a(alt_irq_vars.o)
 .debug_info    0x00000000000181cc      0x3dd c:/users/bdunne/source/lcd_camera_example/lcd_camera_bsp\libhal_bsp.a(alt_open.o)
 .debug_info    0x00000000000185a9      0x125 c:/users/bdunne/source/lcd_camera_example/lcd_camera_bsp\libhal_bsp.a(alt_printf.o)
 .debug_info    0x00000000000186ce       0x9e c:/users/bdunne/source/lcd_camera_example/lcd_camera_bsp\libhal_bsp.a(alt_putchar.o)
 .debug_info    0x000000000001876c      0x2bd c:/users/bdunne/source/lcd_camera_example/lcd_camera_bsp\libhal_bsp.a(alt_tick.o)
 .debug_info    0x0000000000018a29       0x8c c:/users/bdunne/source/lcd_camera_example/lcd_camera_bsp\libhal_bsp.a(altera_nios2_gen2_irq.o)
 .debug_info    0x0000000000018ab5       0x22 c:/users/bdunne/source/lcd_camera_example/lcd_camera_bsp\libhal_bsp.a(alt_exception_entry.o)
 .debug_info    0x0000000000018ad7      0x2eb c:/users/bdunne/source/lcd_camera_example/lcd_camera_bsp\libhal_bsp.a(alt_find_file.o)
 .debug_info    0x0000000000018dc2      0x31c c:/users/bdunne/source/lcd_camera_example/lcd_camera_bsp\libhal_bsp.a(alt_get_fd.o)
 .debug_info    0x00000000000190de       0xdb c:/users/bdunne/source/lcd_camera_example/lcd_camera_bsp\libhal_bsp.a(alt_icache_flush.o)
 .debug_info    0x00000000000191b9      0x1f1 c:/users/bdunne/source/lcd_camera_example/lcd_camera_bsp\libhal_bsp.a(alt_instruction_exception_entry.o)
 .debug_info    0x00000000000193aa      0x100 c:/intelfpga_lite/20.1/nios2eds/bin/gnu/h-x86_64-mingw32/bin/../lib/gcc/nios2-elf/10.1.1/../../../../../H-x86_64-mingw32/nios2-elf/lib/mhw-mulx\libc.a(lib_a-atexit.o)
 .debug_info    0x00000000000194aa      0x970 c:/intelfpga_lite/20.1/nios2eds/bin/gnu/h-x86_64-mingw32/bin/../lib/gcc/nios2-elf/10.1.1/../../../../../H-x86_64-mingw32/nios2-elf/lib/mhw-mulx\libc.a(lib_a-exit.o)
 .debug_info    0x0000000000019e1a      0x138 c:/intelfpga_lite/20.1/nios2eds/bin/gnu/h-x86_64-mingw32/bin/../lib/gcc/nios2-elf/10.1.1/../../../../../H-x86_64-mingw32/nios2-elf/lib/mhw-mulx\libc.a(lib_a-memcmp.o)
 .debug_info    0x0000000000019f52      0x9b8 c:/intelfpga_lite/20.1/nios2eds/bin/gnu/h-x86_64-mingw32/bin/../lib/gcc/nios2-elf/10.1.1/../../../../../H-x86_64-mingw32/nios2-elf/lib/mhw-mulx\libc.a(lib_a-putchar.o)
 .debug_info    0x000000000001a90a      0x9b1 c:/intelfpga_lite/20.1/nios2eds/bin/gnu/h-x86_64-mingw32/bin/../lib/gcc/nios2-elf/10.1.1/../../../../../H-x86_64-mingw32/nios2-elf/lib/mhw-mulx\libc.a(lib_a-__atexit.o)
 .debug_info    0x000000000001b2bb      0x9f9 c:/intelfpga_lite/20.1/nios2eds/bin/gnu/h-x86_64-mingw32/bin/../lib/gcc/nios2-elf/10.1.1/../../../../../H-x86_64-mingw32/nios2-elf/lib/mhw-mulx\libc.a(lib_a-__call_atexit.o)
 .debug_info    0x000000000001bcb4      0xa6a c:/intelfpga_lite/20.1/nios2eds/bin/gnu/h-x86_64-mingw32/bin/../lib/gcc/nios2-elf/10.1.1/../../../../../H-x86_64-mingw32/nios2-elf/lib/mhw-mulx\libc.a(lib_a-putc.o)
 .debug_info    0x000000000001c71e      0xa66 c:/intelfpga_lite/20.1/nios2eds/bin/gnu/h-x86_64-mingw32/bin/../lib/gcc/nios2-elf/10.1.1/../../../../../H-x86_64-mingw32/nios2-elf/lib/mhw-mulx\libc.a(lib_a-wbuf.o)
 .debug_info    0x000000000001d184       0xe1 c:/users/bdunne/source/lcd_camera_example/lcd_camera_bsp\libhal_bsp.a(alt_exit.o)

.debug_abbrev   0x0000000000000000     0x84a9
 *(.debug_abbrev)
 .debug_abbrev  0x0000000000000000       0x12 c:/users/bdunne/source/lcd_camera_example/lcd_camera_bsp/obj/HAL/src/crt0.o
 .debug_abbrev  0x0000000000000012      0x1d7 obj/default/camera.o
 .debug_abbrev  0x00000000000001e9      0x178 obj/default/main.o
 .debug_abbrev  0x0000000000000361       0x83 c:/intelfpga_lite/20.1/nios2eds/bin/gnu/h-x86_64-mingw32/bin/../lib/gcc/nios2-elf/10.1.1/mhw-mulx\libgcc.a(_fixunssfsi.o)
 .debug_abbrev  0x00000000000003e4      0x156 c:/intelfpga_lite/20.1/nios2eds/bin/gnu/h-x86_64-mingw32/bin/../lib/gcc/nios2-elf/10.1.1/mhw-mulx\libgcc.a(gesf2.o)
 .debug_abbrev  0x000000000000053a      0x166 c:/intelfpga_lite/20.1/nios2eds/bin/gnu/h-x86_64-mingw32/bin/../lib/gcc/nios2-elf/10.1.1/mhw-mulx\libgcc.a(subsf3.o)
 .debug_abbrev  0x00000000000006a0      0x142 c:/intelfpga_lite/20.1/nios2eds/bin/gnu/h-x86_64-mingw32/bin/../lib/gcc/nios2-elf/10.1.1/mhw-mulx\libgcc.a(fixsfsi.o)
 .debug_abbrev  0x00000000000007e2      0x173 c:/intelfpga_lite/20.1/nios2eds/bin/gnu/h-x86_64-mingw32/bin/../lib/gcc/nios2-elf/10.1.1/mhw-mulx\libgcc.a(floatsisf.o)
 .debug_abbrev  0x0000000000000955       0xbf c:/intelfpga_lite/20.1/nios2eds/bin/gnu/h-x86_64-mingw32/bin/../lib/gcc/nios2-elf/10.1.1/mhw-mulx\libgcc.a(_clzsi2.o)
 .debug_abbrev  0x0000000000000a14       0x70 c:/intelfpga_lite/20.1/nios2eds/bin/gnu/h-x86_64-mingw32/bin/../lib/gcc/nios2-elf/10.1.1/mhw-mulx\libgcc.a(_clz.o)
 .debug_abbrev  0x0000000000000a84      0x2a0 c:/intelfpga_lite/20.1/nios2eds/bin/gnu/h-x86_64-mingw32/bin/../lib/gcc/nios2-elf/10.1.1/../../../../../H-x86_64-mingw32/nios2-elf/lib/mhw-mulx\libc.a(lib_a-puts.o)
 .debug_abbrev  0x0000000000000d24       0x8f c:/intelfpga_lite/20.1/nios2eds/bin/gnu/h-x86_64-mingw32/bin/../lib/gcc/nios2-elf/10.1.1/../../../../../H-x86_64-mingw32/nios2-elf/lib/mhw-mulx\libc.a(lib_a-strlen.o)
 .debug_abbrev  0x0000000000000db3      0x44c c:/intelfpga_lite/20.1/nios2eds/bin/gnu/h-x86_64-mingw32/bin/../lib/gcc/nios2-elf/10.1.1/../../../../../H-x86_64-mingw32/nios2-elf/lib/mhw-mulx\libc.a(lib_a-findfp.o)
 .debug_abbrev  0x00000000000011ff      0x295 c:/intelfpga_lite/20.1/nios2eds/bin/gnu/h-x86_64-mingw32/bin/../lib/gcc/nios2-elf/10.1.1/../../../../../H-x86_64-mingw32/nios2-elf/lib/mhw-mulx\libc.a(lib_a-fvwrite.o)
 .debug_abbrev  0x0000000000001494      0x20f c:/intelfpga_lite/20.1/nios2eds/bin/gnu/h-x86_64-mingw32/bin/../lib/gcc/nios2-elf/10.1.1/../../../../../H-x86_64-mingw32/nios2-elf/lib/mhw-mulx\libc.a(lib_a-fwalk.o)
 .debug_abbrev  0x00000000000016a3      0x1c9 c:/intelfpga_lite/20.1/nios2eds/bin/gnu/h-x86_64-mingw32/bin/../lib/gcc/nios2-elf/10.1.1/../../../../../H-x86_64-mingw32/nios2-elf/lib/mhw-mulx\libc.a(lib_a-impure.o)
 .debug_abbrev  0x000000000000186c      0x2f6 c:/intelfpga_lite/20.1/nios2eds/bin/gnu/h-x86_64-mingw32/bin/../lib/gcc/nios2-elf/10.1.1/../../../../../H-x86_64-mingw32/nios2-elf/lib/mhw-mulx\libc.a(lib_a-mallocr.o)
 .debug_abbrev  0x0000000000001b62       0xc3 c:/intelfpga_lite/20.1/nios2eds/bin/gnu/h-x86_64-mingw32/bin/../lib/gcc/nios2-elf/10.1.1/../../../../../H-x86_64-mingw32/nios2-elf/lib/mhw-mulx\libc.a(lib_a-memchr.o)
 .debug_abbrev  0x0000000000001c25       0xb6 c:/intelfpga_lite/20.1/nios2eds/bin/gnu/h-x86_64-mingw32/bin/../lib/gcc/nios2-elf/10.1.1/../../../../../H-x86_64-mingw32/nios2-elf/lib/mhw-mulx\libc.a(lib_a-memcpy.o)
 .debug_abbrev  0x0000000000001cdb       0xaf c:/intelfpga_lite/20.1/nios2eds/bin/gnu/h-x86_64-mingw32/bin/../lib/gcc/nios2-elf/10.1.1/../../../../../H-x86_64-mingw32/nios2-elf/lib/mhw-mulx\libc.a(lib_a-memmove.o)
 .debug_abbrev  0x0000000000001d8a       0xb4 c:/intelfpga_lite/20.1/nios2eds/bin/gnu/h-x86_64-mingw32/bin/../lib/gcc/nios2-elf/10.1.1/../../../../../H-x86_64-mingw32/nios2-elf/lib/mhw-mulx\libc.a(lib_a-memset.o)
 .debug_abbrev  0x0000000000001e3e      0x289 c:/intelfpga_lite/20.1/nios2eds/bin/gnu/h-x86_64-mingw32/bin/../lib/gcc/nios2-elf/10.1.1/../../../../../H-x86_64-mingw32/nios2-elf/lib/mhw-mulx\libc.a(lib_a-reallocr.o)
 .debug_abbrev  0x00000000000020c7      0x24e c:/intelfpga_lite/20.1/nios2eds/bin/gnu/h-x86_64-mingw32/bin/../lib/gcc/nios2-elf/10.1.1/../../../../../H-x86_64-mingw32/nios2-elf/lib/mhw-mulx\libc.a(lib_a-sbrkr.o)
 .debug_abbrev  0x0000000000002315      0x273 c:/intelfpga_lite/20.1/nios2eds/bin/gnu/h-x86_64-mingw32/bin/../lib/gcc/nios2-elf/10.1.1/../../../../../H-x86_64-mingw32/nios2-elf/lib/mhw-mulx\libc.a(lib_a-stdio.o)
 .debug_abbrev  0x0000000000002588      0x228 c:/intelfpga_lite/20.1/nios2eds/bin/gnu/h-x86_64-mingw32/bin/../lib/gcc/nios2-elf/10.1.1/../../../../../H-x86_64-mingw32/nios2-elf/lib/mhw-mulx\libc.a(lib_a-writer.o)
 .debug_abbrev  0x00000000000027b0      0x257 c:/intelfpga_lite/20.1/nios2eds/bin/gnu/h-x86_64-mingw32/bin/../lib/gcc/nios2-elf/10.1.1/../../../../../H-x86_64-mingw32/nios2-elf/lib/mhw-mulx\libc.a(lib_a-wsetup.o)
 .debug_abbrev  0x0000000000002a07      0x223 c:/intelfpga_lite/20.1/nios2eds/bin/gnu/h-x86_64-mingw32/bin/../lib/gcc/nios2-elf/10.1.1/../../../../../H-x86_64-mingw32/nios2-elf/lib/mhw-mulx\libc.a(closer.o)
 .debug_abbrev  0x0000000000002c2a      0x317 c:/intelfpga_lite/20.1/nios2eds/bin/gnu/h-x86_64-mingw32/bin/../lib/gcc/nios2-elf/10.1.1/../../../../../H-x86_64-mingw32/nios2-elf/lib/mhw-mulx\libc.a(lib_a-fclose.o)
 .debug_abbrev  0x0000000000002f41      0x344 c:/intelfpga_lite/20.1/nios2eds/bin/gnu/h-x86_64-mingw32/bin/../lib/gcc/nios2-elf/10.1.1/../../../../../H-x86_64-mingw32/nios2-elf/lib/mhw-mulx\libc.a(lib_a-fflush.o)
 .debug_abbrev  0x0000000000003285      0x2b1 c:/intelfpga_lite/20.1/nios2eds/bin/gnu/h-x86_64-mingw32/bin/../lib/gcc/nios2-elf/10.1.1/../../../../../H-x86_64-mingw32/nios2-elf/lib/mhw-mulx\libc.a(lib_a-freer.o)
 .debug_abbrev  0x0000000000003536       0x39 c:/intelfpga_lite/20.1/nios2eds/bin/gnu/h-x86_64-mingw32/bin/../lib/gcc/nios2-elf/10.1.1/../../../../../H-x86_64-mingw32/nios2-elf/lib/mhw-mulx\libc.a(lib_a-int_errno.o)
 .debug_abbrev  0x000000000000356f      0x237 c:/intelfpga_lite/20.1/nios2eds/bin/gnu/h-x86_64-mingw32/bin/../lib/gcc/nios2-elf/10.1.1/../../../../../H-x86_64-mingw32/nios2-elf/lib/mhw-mulx\libc.a(lib_a-lseekr.o)
 .debug_abbrev  0x00000000000037a6      0x308 c:/intelfpga_lite/20.1/nios2eds/bin/gnu/h-x86_64-mingw32/bin/../lib/gcc/nios2-elf/10.1.1/../../../../../H-x86_64-mingw32/nios2-elf/lib/mhw-mulx\libc.a(lib_a-makebuf.o)
 .debug_abbrev  0x0000000000003aae      0x223 c:/intelfpga_lite/20.1/nios2eds/bin/gnu/h-x86_64-mingw32/bin/../lib/gcc/nios2-elf/10.1.1/../../../../../H-x86_64-mingw32/nios2-elf/lib/mhw-mulx\libc.a(lib_a-readr.o)
 .debug_abbrev  0x0000000000003cd1      0x237 c:/intelfpga_lite/20.1/nios2eds/bin/gnu/h-x86_64-mingw32/bin/../lib/gcc/nios2-elf/10.1.1/../../../../../H-x86_64-mingw32/nios2-elf/lib/mhw-mulx\libc.a(lib_a-fstatr.o)
 .debug_abbrev  0x0000000000003f08      0x223 c:/intelfpga_lite/20.1/nios2eds/bin/gnu/h-x86_64-mingw32/bin/../lib/gcc/nios2-elf/10.1.1/../../../../../H-x86_64-mingw32/nios2-elf/lib/mhw-mulx\libc.a(lib_a-isattyr.o)
 .debug_abbrev  0x000000000000412b      0x103 c:/intelfpga_lite/20.1/nios2eds/bin/gnu/h-x86_64-mingw32/bin/../lib/gcc/nios2-elf/10.1.1/mhw-mulx\libgcc.a(lib2-divmod.o)
 .debug_abbrev  0x000000000000422e      0x133 c:/users/bdunne/source/lcd_camera_example/lcd_camera_bsp\libhal_bsp.a(alt_close.o)
 .debug_abbrev  0x0000000000004361      0x117 c:/users/bdunne/source/lcd_camera_example/lcd_camera_bsp\libhal_bsp.a(alt_dev.o)
 .debug_abbrev  0x0000000000004478       0x5a c:/users/bdunne/source/lcd_camera_example/lcd_camera_bsp\libhal_bsp.a(alt_errno.o)
 .debug_abbrev  0x00000000000044d2      0x133 c:/users/bdunne/source/lcd_camera_example/lcd_camera_bsp\libhal_bsp.a(alt_fstat.o)
 .debug_abbrev  0x0000000000004605      0x133 c:/users/bdunne/source/lcd_camera_example/lcd_camera_bsp\libhal_bsp.a(alt_isatty.o)
 .debug_abbrev  0x0000000000004738       0xab c:/users/bdunne/source/lcd_camera_example/lcd_camera_bsp\libhal_bsp.a(alt_load.o)
 .debug_abbrev  0x00000000000047e3      0x133 c:/users/bdunne/source/lcd_camera_example/lcd_camera_bsp\libhal_bsp.a(alt_lseek.o)
 .debug_abbrev  0x0000000000004916       0x86 c:/users/bdunne/source/lcd_camera_example/lcd_camera_bsp\libhal_bsp.a(alt_main.o)
 .debug_abbrev  0x000000000000499c      0x1e7 c:/users/bdunne/source/lcd_camera_example/lcd_camera_bsp\libhal_bsp.a(alt_malloc_lock.o)
 .debug_abbrev  0x0000000000004b83      0x144 c:/users/bdunne/source/lcd_camera_example/lcd_camera_bsp\libhal_bsp.a(alt_read.o)
 .debug_abbrev  0x0000000000004cc7       0xea c:/users/bdunne/source/lcd_camera_example/lcd_camera_bsp\libhal_bsp.a(alt_release_fd.o)
 .debug_abbrev  0x0000000000004db1      0x11d c:/users/bdunne/source/lcd_camera_example/lcd_camera_bsp\libhal_bsp.a(alt_sbrk.o)
 .debug_abbrev  0x0000000000004ece      0x149 c:/users/bdunne/source/lcd_camera_example/lcd_camera_bsp\libhal_bsp.a(alt_write.o)
 .debug_abbrev  0x0000000000005017      0x1df c:/users/bdunne/source/lcd_camera_example/lcd_camera_bsp\libhal_bsp.a(alt_sys_init.o)
 .debug_abbrev  0x00000000000051f6      0x33b c:/users/bdunne/source/lcd_camera_example/lcd_camera_bsp\libhal_bsp.a(altera_avalon_i2c.o)
 .debug_abbrev  0x0000000000005531      0x146 c:/users/bdunne/source/lcd_camera_example/lcd_camera_bsp\libhal_bsp.a(altera_avalon_jtag_uart_fd.o)
 .debug_abbrev  0x0000000000005677      0x1be c:/users/bdunne/source/lcd_camera_example/lcd_camera_bsp\libhal_bsp.a(altera_avalon_jtag_uart_init.o)
 .debug_abbrev  0x0000000000005835      0x112 c:/users/bdunne/source/lcd_camera_example/lcd_camera_bsp\libhal_bsp.a(altera_avalon_jtag_uart_ioctl.o)
 .debug_abbrev  0x0000000000005947      0x1b0 c:/users/bdunne/source/lcd_camera_example/lcd_camera_bsp\libhal_bsp.a(altera_avalon_jtag_uart_read.o)
 .debug_abbrev  0x0000000000005af7      0x1ae c:/users/bdunne/source/lcd_camera_example/lcd_camera_bsp\libhal_bsp.a(altera_avalon_jtag_uart_write.o)
 .debug_abbrev  0x0000000000005ca5      0x14b c:/users/bdunne/source/lcd_camera_example/lcd_camera_bsp\libhal_bsp.a(altera_avalon_timer_sc.o)
 .debug_abbrev  0x0000000000005df0      0x21b c:/users/bdunne/source/lcd_camera_example/lcd_camera_bsp\libhal_bsp.a(dma_avalon_st_sink_to_mm_master.o)
 .debug_abbrev  0x000000000000600b      0x148 c:/users/bdunne/source/lcd_camera_example/lcd_camera_bsp\libhal_bsp.a(lcd8080.o)
 .debug_abbrev  0x0000000000006153      0x188 c:/users/bdunne/source/lcd_camera_example/lcd_camera_bsp\libhal_bsp.a(alt_alarm_start.o)
 .debug_abbrev  0x00000000000062db       0x88 c:/users/bdunne/source/lcd_camera_example/lcd_camera_bsp\libhal_bsp.a(alt_busy_sleep.o)
 .debug_abbrev  0x0000000000006363       0x44 c:/users/bdunne/source/lcd_camera_example/lcd_camera_bsp\libhal_bsp.a(alt_dcache_flush_all.o)
 .debug_abbrev  0x00000000000063a7      0x12a c:/users/bdunne/source/lcd_camera_example/lcd_camera_bsp\libhal_bsp.a(alt_dev_llist_insert.o)
 .debug_abbrev  0x00000000000064d1       0x81 c:/users/bdunne/source/lcd_camera_example/lcd_camera_bsp\libhal_bsp.a(alt_do_ctors.o)
 .debug_abbrev  0x0000000000006552       0x81 c:/users/bdunne/source/lcd_camera_example/lcd_camera_bsp\libhal_bsp.a(alt_do_dtors.o)
 .debug_abbrev  0x00000000000065d3       0xed c:/users/bdunne/source/lcd_camera_example/lcd_camera_bsp\libhal_bsp.a(alt_find_dev.o)
 .debug_abbrev  0x00000000000066c0       0x44 c:/users/bdunne/source/lcd_camera_example/lcd_camera_bsp\libhal_bsp.a(alt_icache_flush_all.o)
 .debug_abbrev  0x0000000000006704      0x189 c:/users/bdunne/source/lcd_camera_example/lcd_camera_bsp\libhal_bsp.a(alt_iic.o)
 .debug_abbrev  0x000000000000688d      0x17c c:/users/bdunne/source/lcd_camera_example/lcd_camera_bsp\libhal_bsp.a(alt_iic_isr_register.o)
 .debug_abbrev  0x0000000000006a09      0x126 c:/users/bdunne/source/lcd_camera_example/lcd_camera_bsp\libhal_bsp.a(alt_io_redirect.o)
 .debug_abbrev  0x0000000000006b2f       0x12 c:/users/bdunne/source/lcd_camera_example/lcd_camera_bsp\libhal_bsp.a(alt_irq_entry.o)
 .debug_abbrev  0x0000000000006b41      0x12d c:/users/bdunne/source/lcd_camera_example/lcd_camera_bsp\libhal_bsp.a(alt_irq_handler.o)
 .debug_abbrev  0x0000000000006c6e       0x44 c:/users/bdunne/source/lcd_camera_example/lcd_camera_bsp\libhal_bsp.a(alt_irq_vars.o)
 .debug_abbrev  0x0000000000006cb2      0x160 c:/users/bdunne/source/lcd_camera_example/lcd_camera_bsp\libhal_bsp.a(alt_open.o)
 .debug_abbrev  0x0000000000006e12       0xba c:/users/bdunne/source/lcd_camera_example/lcd_camera_bsp\libhal_bsp.a(alt_printf.o)
 .debug_abbrev  0x0000000000006ecc       0x57 c:/users/bdunne/source/lcd_camera_example/lcd_camera_bsp\libhal_bsp.a(alt_putchar.o)
 .debug_abbrev  0x0000000000006f23      0x17a c:/users/bdunne/source/lcd_camera_example/lcd_camera_bsp\libhal_bsp.a(alt_tick.o)
 .debug_abbrev  0x000000000000709d       0x44 c:/users/bdunne/source/lcd_camera_example/lcd_camera_bsp\libhal_bsp.a(altera_nios2_gen2_irq.o)
 .debug_abbrev  0x00000000000070e1       0x12 c:/users/bdunne/source/lcd_camera_example/lcd_camera_bsp\libhal_bsp.a(alt_exception_entry.o)
 .debug_abbrev  0x00000000000070f3      0x100 c:/users/bdunne/source/lcd_camera_example/lcd_camera_bsp\libhal_bsp.a(alt_find_file.o)
 .debug_abbrev  0x00000000000071f3      0x121 c:/users/bdunne/source/lcd_camera_example/lcd_camera_bsp\libhal_bsp.a(alt_get_fd.o)
 .debug_abbrev  0x0000000000007314       0x96 c:/users/bdunne/source/lcd_camera_example/lcd_camera_bsp\libhal_bsp.a(alt_icache_flush.o)
 .debug_abbrev  0x00000000000073aa       0xea c:/users/bdunne/source/lcd_camera_example/lcd_camera_bsp\libhal_bsp.a(alt_instruction_exception_entry.o)
 .debug_abbrev  0x0000000000007494       0xb7 c:/intelfpga_lite/20.1/nios2eds/bin/gnu/h-x86_64-mingw32/bin/../lib/gcc/nios2-elf/10.1.1/../../../../../H-x86_64-mingw32/nios2-elf/lib/mhw-mulx\libc.a(lib_a-atexit.o)
 .debug_abbrev  0x000000000000754b      0x21d c:/intelfpga_lite/20.1/nios2eds/bin/gnu/h-x86_64-mingw32/bin/../lib/gcc/nios2-elf/10.1.1/../../../../../H-x86_64-mingw32/nios2-elf/lib/mhw-mulx\libc.a(lib_a-exit.o)
 .debug_abbrev  0x0000000000007768       0x8d c:/intelfpga_lite/20.1/nios2eds/bin/gnu/h-x86_64-mingw32/bin/../lib/gcc/nios2-elf/10.1.1/../../../../../H-x86_64-mingw32/nios2-elf/lib/mhw-mulx\libc.a(lib_a-memcmp.o)
 .debug_abbrev  0x00000000000077f5      0x244 c:/intelfpga_lite/20.1/nios2eds/bin/gnu/h-x86_64-mingw32/bin/../lib/gcc/nios2-elf/10.1.1/../../../../../H-x86_64-mingw32/nios2-elf/lib/mhw-mulx\libc.a(lib_a-putchar.o)
 .debug_abbrev  0x0000000000007a39      0x250 c:/intelfpga_lite/20.1/nios2eds/bin/gnu/h-x86_64-mingw32/bin/../lib/gcc/nios2-elf/10.1.1/../../../../../H-x86_64-mingw32/nios2-elf/lib/mhw-mulx\libc.a(lib_a-__atexit.o)
 .debug_abbrev  0x0000000000007c89      0x259 c:/intelfpga_lite/20.1/nios2eds/bin/gnu/h-x86_64-mingw32/bin/../lib/gcc/nios2-elf/10.1.1/../../../../../H-x86_64-mingw32/nios2-elf/lib/mhw-mulx\libc.a(lib_a-__call_atexit.o)
 .debug_abbrev  0x0000000000007ee2      0x284 c:/intelfpga_lite/20.1/nios2eds/bin/gnu/h-x86_64-mingw32/bin/../lib/gcc/nios2-elf/10.1.1/../../../../../H-x86_64-mingw32/nios2-elf/lib/mhw-mulx\libc.a(lib_a-putc.o)
 .debug_abbrev  0x0000000000008166      0x297 c:/intelfpga_lite/20.1/nios2eds/bin/gnu/h-x86_64-mingw32/bin/../lib/gcc/nios2-elf/10.1.1/../../../../../H-x86_64-mingw32/nios2-elf/lib/mhw-mulx\libc.a(lib_a-wbuf.o)
 .debug_abbrev  0x00000000000083fd       0xac c:/users/bdunne/source/lcd_camera_example/lcd_camera_bsp\libhal_bsp.a(alt_exit.o)

.debug_line     0x0000000000000000     0xc858
 *(.debug_line)
 .debug_line    0x0000000000000000       0x6c c:/users/bdunne/source/lcd_camera_example/lcd_camera_bsp/obj/HAL/src/crt0.o
 .debug_line    0x000000000000006c      0x3f3 obj/default/camera.o
 .debug_line    0x000000000000045f      0x3c9 obj/default/main.o
 .debug_line    0x0000000000000828       0x99 c:/intelfpga_lite/20.1/nios2eds/bin/gnu/h-x86_64-mingw32/bin/../lib/gcc/nios2-elf/10.1.1/mhw-mulx\libgcc.a(_fixunssfsi.o)
 .debug_line    0x00000000000008c1      0x146 c:/intelfpga_lite/20.1/nios2eds/bin/gnu/h-x86_64-mingw32/bin/../lib/gcc/nios2-elf/10.1.1/mhw-mulx\libgcc.a(gesf2.o)
 .debug_line    0x0000000000000a07      0x687 c:/intelfpga_lite/20.1/nios2eds/bin/gnu/h-x86_64-mingw32/bin/../lib/gcc/nios2-elf/10.1.1/mhw-mulx\libgcc.a(subsf3.o)
 .debug_line    0x000000000000108e      0x11d c:/intelfpga_lite/20.1/nios2eds/bin/gnu/h-x86_64-mingw32/bin/../lib/gcc/nios2-elf/10.1.1/mhw-mulx\libgcc.a(fixsfsi.o)
 .debug_line    0x00000000000011ab      0x218 c:/intelfpga_lite/20.1/nios2eds/bin/gnu/h-x86_64-mingw32/bin/../lib/gcc/nios2-elf/10.1.1/mhw-mulx\libgcc.a(floatsisf.o)
 .debug_line    0x00000000000013c3       0xaa c:/intelfpga_lite/20.1/nios2eds/bin/gnu/h-x86_64-mingw32/bin/../lib/gcc/nios2-elf/10.1.1/mhw-mulx\libgcc.a(_clzsi2.o)
 .debug_line    0x000000000000146d       0x59 c:/intelfpga_lite/20.1/nios2eds/bin/gnu/h-x86_64-mingw32/bin/../lib/gcc/nios2-elf/10.1.1/mhw-mulx\libgcc.a(_clz.o)
 .debug_line    0x00000000000014c6      0x319 c:/intelfpga_lite/20.1/nios2eds/bin/gnu/h-x86_64-mingw32/bin/../lib/gcc/nios2-elf/10.1.1/../../../../../H-x86_64-mingw32/nios2-elf/lib/mhw-mulx\libc.a(lib_a-puts.o)
 .debug_line    0x00000000000017df      0x1db c:/intelfpga_lite/20.1/nios2eds/bin/gnu/h-x86_64-mingw32/bin/../lib/gcc/nios2-elf/10.1.1/../../../../../H-x86_64-mingw32/nios2-elf/lib/mhw-mulx\libc.a(lib_a-strlen.o)
 .debug_line    0x00000000000019ba      0x69c c:/intelfpga_lite/20.1/nios2eds/bin/gnu/h-x86_64-mingw32/bin/../lib/gcc/nios2-elf/10.1.1/../../../../../H-x86_64-mingw32/nios2-elf/lib/mhw-mulx\libc.a(lib_a-findfp.o)
 .debug_line    0x0000000000002056      0x70d c:/intelfpga_lite/20.1/nios2eds/bin/gnu/h-x86_64-mingw32/bin/../lib/gcc/nios2-elf/10.1.1/../../../../../H-x86_64-mingw32/nios2-elf/lib/mhw-mulx\libc.a(lib_a-fvwrite.o)
 .debug_line    0x0000000000002763      0x369 c:/intelfpga_lite/20.1/nios2eds/bin/gnu/h-x86_64-mingw32/bin/../lib/gcc/nios2-elf/10.1.1/../../../../../H-x86_64-mingw32/nios2-elf/lib/mhw-mulx\libc.a(lib_a-fwalk.o)
 .debug_line    0x0000000000002acc      0x167 c:/intelfpga_lite/20.1/nios2eds/bin/gnu/h-x86_64-mingw32/bin/../lib/gcc/nios2-elf/10.1.1/../../../../../H-x86_64-mingw32/nios2-elf/lib/mhw-mulx\libc.a(lib_a-impure.o)
 .debug_line    0x0000000000002c33      0x97b c:/intelfpga_lite/20.1/nios2eds/bin/gnu/h-x86_64-mingw32/bin/../lib/gcc/nios2-elf/10.1.1/../../../../../H-x86_64-mingw32/nios2-elf/lib/mhw-mulx\libc.a(lib_a-mallocr.o)
 .debug_line    0x00000000000035ae      0x224 c:/intelfpga_lite/20.1/nios2eds/bin/gnu/h-x86_64-mingw32/bin/../lib/gcc/nios2-elf/10.1.1/../../../../../H-x86_64-mingw32/nios2-elf/lib/mhw-mulx\libc.a(lib_a-memchr.o)
 .debug_line    0x00000000000037d2      0x238 c:/intelfpga_lite/20.1/nios2eds/bin/gnu/h-x86_64-mingw32/bin/../lib/gcc/nios2-elf/10.1.1/../../../../../H-x86_64-mingw32/nios2-elf/lib/mhw-mulx\libc.a(lib_a-memcpy.o)
 .debug_line    0x0000000000003a0a      0x26e c:/intelfpga_lite/20.1/nios2eds/bin/gnu/h-x86_64-mingw32/bin/../lib/gcc/nios2-elf/10.1.1/../../../../../H-x86_64-mingw32/nios2-elf/lib/mhw-mulx\libc.a(lib_a-memmove.o)
 .debug_line    0x0000000000003c78      0x259 c:/intelfpga_lite/20.1/nios2eds/bin/gnu/h-x86_64-mingw32/bin/../lib/gcc/nios2-elf/10.1.1/../../../../../H-x86_64-mingw32/nios2-elf/lib/mhw-mulx\libc.a(lib_a-memset.o)
 .debug_line    0x0000000000003ed1      0x78a c:/intelfpga_lite/20.1/nios2eds/bin/gnu/h-x86_64-mingw32/bin/../lib/gcc/nios2-elf/10.1.1/../../../../../H-x86_64-mingw32/nios2-elf/lib/mhw-mulx\libc.a(lib_a-reallocr.o)
 .debug_line    0x000000000000465b      0x22b c:/intelfpga_lite/20.1/nios2eds/bin/gnu/h-x86_64-mingw32/bin/../lib/gcc/nios2-elf/10.1.1/../../../../../H-x86_64-mingw32/nios2-elf/lib/mhw-mulx\libc.a(lib_a-sbrkr.o)
 .debug_line    0x0000000000004886      0x339 c:/intelfpga_lite/20.1/nios2eds/bin/gnu/h-x86_64-mingw32/bin/../lib/gcc/nios2-elf/10.1.1/../../../../../H-x86_64-mingw32/nios2-elf/lib/mhw-mulx\libc.a(lib_a-stdio.o)
 .debug_line    0x0000000000004bbf      0x238 c:/intelfpga_lite/20.1/nios2eds/bin/gnu/h-x86_64-mingw32/bin/../lib/gcc/nios2-elf/10.1.1/../../../../../H-x86_64-mingw32/nios2-elf/lib/mhw-mulx\libc.a(lib_a-writer.o)
 .debug_line    0x0000000000004df7      0x3c1 c:/intelfpga_lite/20.1/nios2eds/bin/gnu/h-x86_64-mingw32/bin/../lib/gcc/nios2-elf/10.1.1/../../../../../H-x86_64-mingw32/nios2-elf/lib/mhw-mulx\libc.a(lib_a-wsetup.o)
 .debug_line    0x00000000000051b8      0x237 c:/intelfpga_lite/20.1/nios2eds/bin/gnu/h-x86_64-mingw32/bin/../lib/gcc/nios2-elf/10.1.1/../../../../../H-x86_64-mingw32/nios2-elf/lib/mhw-mulx\libc.a(closer.o)
 .debug_line    0x00000000000053ef      0x390 c:/intelfpga_lite/20.1/nios2eds/bin/gnu/h-x86_64-mingw32/bin/../lib/gcc/nios2-elf/10.1.1/../../../../../H-x86_64-mingw32/nios2-elf/lib/mhw-mulx\libc.a(lib_a-fclose.o)
 .debug_line    0x000000000000577f      0x567 c:/intelfpga_lite/20.1/nios2eds/bin/gnu/h-x86_64-mingw32/bin/../lib/gcc/nios2-elf/10.1.1/../../../../../H-x86_64-mingw32/nios2-elf/lib/mhw-mulx\libc.a(lib_a-fflush.o)
 .debug_line    0x0000000000005ce6      0x5cb c:/intelfpga_lite/20.1/nios2eds/bin/gnu/h-x86_64-mingw32/bin/../lib/gcc/nios2-elf/10.1.1/../../../../../H-x86_64-mingw32/nios2-elf/lib/mhw-mulx\libc.a(lib_a-freer.o)
 .debug_line    0x00000000000062b1       0x61 c:/intelfpga_lite/20.1/nios2eds/bin/gnu/h-x86_64-mingw32/bin/../lib/gcc/nios2-elf/10.1.1/../../../../../H-x86_64-mingw32/nios2-elf/lib/mhw-mulx\libc.a(lib_a-int_errno.o)
 .debug_line    0x0000000000006312      0x238 c:/intelfpga_lite/20.1/nios2eds/bin/gnu/h-x86_64-mingw32/bin/../lib/gcc/nios2-elf/10.1.1/../../../../../H-x86_64-mingw32/nios2-elf/lib/mhw-mulx\libc.a(lib_a-lseekr.o)
 .debug_line    0x000000000000654a      0x4e7 c:/intelfpga_lite/20.1/nios2eds/bin/gnu/h-x86_64-mingw32/bin/../lib/gcc/nios2-elf/10.1.1/../../../../../H-x86_64-mingw32/nios2-elf/lib/mhw-mulx\libc.a(lib_a-makebuf.o)
 .debug_line    0x0000000000006a31      0x237 c:/intelfpga_lite/20.1/nios2eds/bin/gnu/h-x86_64-mingw32/bin/../lib/gcc/nios2-elf/10.1.1/../../../../../H-x86_64-mingw32/nios2-elf/lib/mhw-mulx\libc.a(lib_a-readr.o)
 .debug_line    0x0000000000006c68      0x2dd c:/intelfpga_lite/20.1/nios2eds/bin/gnu/h-x86_64-mingw32/bin/../lib/gcc/nios2-elf/10.1.1/../../../../../H-x86_64-mingw32/nios2-elf/lib/mhw-mulx\libc.a(lib_a-fstatr.o)
 .debug_line    0x0000000000006f45      0x238 c:/intelfpga_lite/20.1/nios2eds/bin/gnu/h-x86_64-mingw32/bin/../lib/gcc/nios2-elf/10.1.1/../../../../../H-x86_64-mingw32/nios2-elf/lib/mhw-mulx\libc.a(lib_a-isattyr.o)
 .debug_line    0x000000000000717d      0x306 c:/intelfpga_lite/20.1/nios2eds/bin/gnu/h-x86_64-mingw32/bin/../lib/gcc/nios2-elf/10.1.1/mhw-mulx\libgcc.a(lib2-divmod.o)
 .debug_line    0x0000000000007483      0x1ac c:/users/bdunne/source/lcd_camera_example/lcd_camera_bsp\libhal_bsp.a(alt_close.o)
 .debug_line    0x000000000000762f      0x19f c:/users/bdunne/source/lcd_camera_example/lcd_camera_bsp\libhal_bsp.a(alt_dev.o)
 .debug_line    0x00000000000077ce       0x51 c:/users/bdunne/source/lcd_camera_example/lcd_camera_bsp\libhal_bsp.a(alt_errno.o)
 .debug_line    0x000000000000781f      0x214 c:/users/bdunne/source/lcd_camera_example/lcd_camera_bsp\libhal_bsp.a(alt_fstat.o)
 .debug_line    0x0000000000007a33      0x216 c:/users/bdunne/source/lcd_camera_example/lcd_camera_bsp\libhal_bsp.a(alt_isatty.o)
 .debug_line    0x0000000000007c49       0xa6 c:/users/bdunne/source/lcd_camera_example/lcd_camera_bsp\libhal_bsp.a(alt_load.o)
 .debug_line    0x0000000000007cef      0x19d c:/users/bdunne/source/lcd_camera_example/lcd_camera_bsp\libhal_bsp.a(alt_lseek.o)
 .debug_line    0x0000000000007e8c       0x85 c:/users/bdunne/source/lcd_camera_example/lcd_camera_bsp\libhal_bsp.a(alt_main.o)
 .debug_line    0x0000000000007f11      0x125 c:/users/bdunne/source/lcd_camera_example/lcd_camera_bsp\libhal_bsp.a(alt_malloc_lock.o)
 .debug_line    0x0000000000008036      0x2ab c:/users/bdunne/source/lcd_camera_example/lcd_camera_bsp\libhal_bsp.a(alt_read.o)
 .debug_line    0x00000000000082e1       0xb6 c:/users/bdunne/source/lcd_camera_example/lcd_camera_bsp\libhal_bsp.a(alt_release_fd.o)
 .debug_line    0x0000000000008397      0x10f c:/users/bdunne/source/lcd_camera_example/lcd_camera_bsp\libhal_bsp.a(alt_sbrk.o)
 .debug_line    0x00000000000084a6      0x2ae c:/users/bdunne/source/lcd_camera_example/lcd_camera_bsp\libhal_bsp.a(alt_write.o)
 .debug_line    0x0000000000008754      0x256 c:/users/bdunne/source/lcd_camera_example/lcd_camera_bsp\libhal_bsp.a(alt_sys_init.o)
 .debug_line    0x00000000000089aa      0x8bf c:/users/bdunne/source/lcd_camera_example/lcd_camera_bsp\libhal_bsp.a(altera_avalon_i2c.o)
 .debug_line    0x0000000000009269      0x149 c:/users/bdunne/source/lcd_camera_example/lcd_camera_bsp\libhal_bsp.a(altera_avalon_jtag_uart_fd.o)
 .debug_line    0x00000000000093b2      0x25b c:/users/bdunne/source/lcd_camera_example/lcd_camera_bsp\libhal_bsp.a(altera_avalon_jtag_uart_init.o)
 .debug_line    0x000000000000960d      0x154 c:/users/bdunne/source/lcd_camera_example/lcd_camera_bsp\libhal_bsp.a(altera_avalon_jtag_uart_ioctl.o)
 .debug_line    0x0000000000009761      0x1d1 c:/users/bdunne/source/lcd_camera_example/lcd_camera_bsp\libhal_bsp.a(altera_avalon_jtag_uart_read.o)
 .debug_line    0x0000000000009932      0x1d6 c:/users/bdunne/source/lcd_camera_example/lcd_camera_bsp\libhal_bsp.a(altera_avalon_jtag_uart_write.o)
 .debug_line    0x0000000000009b08       0xfd c:/users/bdunne/source/lcd_camera_example/lcd_camera_bsp\libhal_bsp.a(altera_avalon_timer_sc.o)
 .debug_line    0x0000000000009c05      0x306 c:/users/bdunne/source/lcd_camera_example/lcd_camera_bsp\libhal_bsp.a(dma_avalon_st_sink_to_mm_master.o)
 .debug_line    0x0000000000009f0b      0x1cd c:/users/bdunne/source/lcd_camera_example/lcd_camera_bsp\libhal_bsp.a(lcd8080.o)
 .debug_line    0x000000000000a0d8      0x138 c:/users/bdunne/source/lcd_camera_example/lcd_camera_bsp\libhal_bsp.a(alt_alarm_start.o)
 .debug_line    0x000000000000a210       0xdd c:/users/bdunne/source/lcd_camera_example/lcd_camera_bsp\libhal_bsp.a(alt_busy_sleep.o)
 .debug_line    0x000000000000a2ed       0x53 c:/users/bdunne/source/lcd_camera_example/lcd_camera_bsp\libhal_bsp.a(alt_dcache_flush_all.o)
 .debug_line    0x000000000000a340      0x106 c:/users/bdunne/source/lcd_camera_example/lcd_camera_bsp\libhal_bsp.a(alt_dev_llist_insert.o)
 .debug_line    0x000000000000a446       0x66 c:/users/bdunne/source/lcd_camera_example/lcd_camera_bsp\libhal_bsp.a(alt_do_ctors.o)
 .debug_line    0x000000000000a4ac       0x66 c:/users/bdunne/source/lcd_camera_example/lcd_camera_bsp\libhal_bsp.a(alt_do_dtors.o)
 .debug_line    0x000000000000a512       0xb8 c:/users/bdunne/source/lcd_camera_example/lcd_camera_bsp\libhal_bsp.a(alt_find_dev.o)
 .debug_line    0x000000000000a5ca       0x56 c:/users/bdunne/source/lcd_camera_example/lcd_camera_bsp\libhal_bsp.a(alt_icache_flush_all.o)
 .debug_line    0x000000000000a620      0x123 c:/users/bdunne/source/lcd_camera_example/lcd_camera_bsp\libhal_bsp.a(alt_iic.o)
 .debug_line    0x000000000000a743       0xfc c:/users/bdunne/source/lcd_camera_example/lcd_camera_bsp\libhal_bsp.a(alt_iic_isr_register.o)
 .debug_line    0x000000000000a83f      0x1d2 c:/users/bdunne/source/lcd_camera_example/lcd_camera_bsp\libhal_bsp.a(alt_io_redirect.o)
 .debug_line    0x000000000000aa11       0x6b c:/users/bdunne/source/lcd_camera_example/lcd_camera_bsp\libhal_bsp.a(alt_irq_entry.o)
 .debug_line    0x000000000000aa7c       0xd4 c:/users/bdunne/source/lcd_camera_example/lcd_camera_bsp\libhal_bsp.a(alt_irq_handler.o)
 .debug_line    0x000000000000ab50       0x50 c:/users/bdunne/source/lcd_camera_example/lcd_camera_bsp\libhal_bsp.a(alt_irq_vars.o)
 .debug_line    0x000000000000aba0      0x1a0 c:/users/bdunne/source/lcd_camera_example/lcd_camera_bsp\libhal_bsp.a(alt_open.o)
 .debug_line    0x000000000000ad40      0x152 c:/users/bdunne/source/lcd_camera_example/lcd_camera_bsp\libhal_bsp.a(alt_printf.o)
 .debug_line    0x000000000000ae92       0x50 c:/users/bdunne/source/lcd_camera_example/lcd_camera_bsp\libhal_bsp.a(alt_putchar.o)
 .debug_line    0x000000000000aee2      0x160 c:/users/bdunne/source/lcd_camera_example/lcd_camera_bsp\libhal_bsp.a(alt_tick.o)
 .debug_line    0x000000000000b042       0x57 c:/users/bdunne/source/lcd_camera_example/lcd_camera_bsp\libhal_bsp.a(altera_nios2_gen2_irq.o)
 .debug_line    0x000000000000b099       0xb3 c:/users/bdunne/source/lcd_camera_example/lcd_camera_bsp\libhal_bsp.a(alt_exception_entry.o)
 .debug_line    0x000000000000b14c      0x103 c:/users/bdunne/source/lcd_camera_example/lcd_camera_bsp\libhal_bsp.a(alt_find_file.o)
 .debug_line    0x000000000000b24f       0xfa c:/users/bdunne/source/lcd_camera_example/lcd_camera_bsp\libhal_bsp.a(alt_get_fd.o)
 .debug_line    0x000000000000b349       0xa0 c:/users/bdunne/source/lcd_camera_example/lcd_camera_bsp\libhal_bsp.a(alt_icache_flush.o)
 .debug_line    0x000000000000b3e9       0xd9 c:/users/bdunne/source/lcd_camera_example/lcd_camera_bsp\libhal_bsp.a(alt_instruction_exception_entry.o)
 .debug_line    0x000000000000b4c2       0xf7 c:/intelfpga_lite/20.1/nios2eds/bin/gnu/h-x86_64-mingw32/bin/../lib/gcc/nios2-elf/10.1.1/../../../../../H-x86_64-mingw32/nios2-elf/lib/mhw-mulx\libc.a(lib_a-atexit.o)
 .debug_line    0x000000000000b5b9      0x22a c:/intelfpga_lite/20.1/nios2eds/bin/gnu/h-x86_64-mingw32/bin/../lib/gcc/nios2-elf/10.1.1/../../../../../H-x86_64-mingw32/nios2-elf/lib/mhw-mulx\libc.a(lib_a-exit.o)
 .debug_line    0x000000000000b7e3      0x1e6 c:/intelfpga_lite/20.1/nios2eds/bin/gnu/h-x86_64-mingw32/bin/../lib/gcc/nios2-elf/10.1.1/../../../../../H-x86_64-mingw32/nios2-elf/lib/mhw-mulx\libc.a(lib_a-memcmp.o)
 .debug_line    0x000000000000b9c9      0x220 c:/intelfpga_lite/20.1/nios2eds/bin/gnu/h-x86_64-mingw32/bin/../lib/gcc/nios2-elf/10.1.1/../../../../../H-x86_64-mingw32/nios2-elf/lib/mhw-mulx\libc.a(lib_a-putchar.o)
 .debug_line    0x000000000000bbe9      0x21b c:/intelfpga_lite/20.1/nios2eds/bin/gnu/h-x86_64-mingw32/bin/../lib/gcc/nios2-elf/10.1.1/../../../../../H-x86_64-mingw32/nios2-elf/lib/mhw-mulx\libc.a(lib_a-__atexit.o)
 .debug_line    0x000000000000be04      0x2a3 c:/intelfpga_lite/20.1/nios2eds/bin/gnu/h-x86_64-mingw32/bin/../lib/gcc/nios2-elf/10.1.1/../../../../../H-x86_64-mingw32/nios2-elf/lib/mhw-mulx\libc.a(lib_a-__call_atexit.o)
 .debug_line    0x000000000000c0a7      0x3a7 c:/intelfpga_lite/20.1/nios2eds/bin/gnu/h-x86_64-mingw32/bin/../lib/gcc/nios2-elf/10.1.1/../../../../../H-x86_64-mingw32/nios2-elf/lib/mhw-mulx\libc.a(lib_a-putc.o)
 .debug_line    0x000000000000c44e      0x385 c:/intelfpga_lite/20.1/nios2eds/bin/gnu/h-x86_64-mingw32/bin/../lib/gcc/nios2-elf/10.1.1/../../../../../H-x86_64-mingw32/nios2-elf/lib/mhw-mulx\libc.a(lib_a-wbuf.o)
 .debug_line    0x000000000000c7d3       0x85 c:/users/bdunne/source/lcd_camera_example/lcd_camera_bsp\libhal_bsp.a(alt_exit.o)

.debug_frame    0x0000000000000000     0x2230
 *(.debug_frame)
 .debug_frame   0x0000000000000000      0x100 obj/default/camera.o
 .debug_frame   0x0000000000000100       0xd4 obj/default/main.o
 .debug_frame   0x00000000000001d4       0x3c c:/intelfpga_lite/20.1/nios2eds/bin/gnu/h-x86_64-mingw32/bin/../lib/gcc/nios2-elf/10.1.1/mhw-mulx\libgcc.a(_fixunssfsi.o)
 .debug_frame   0x0000000000000210       0x20 c:/intelfpga_lite/20.1/nios2eds/bin/gnu/h-x86_64-mingw32/bin/../lib/gcc/nios2-elf/10.1.1/mhw-mulx\libgcc.a(gesf2.o)
 .debug_frame   0x0000000000000230       0x3c c:/intelfpga_lite/20.1/nios2eds/bin/gnu/h-x86_64-mingw32/bin/../lib/gcc/nios2-elf/10.1.1/mhw-mulx\libgcc.a(subsf3.o)
 .debug_frame   0x000000000000026c       0x20 c:/intelfpga_lite/20.1/nios2eds/bin/gnu/h-x86_64-mingw32/bin/../lib/gcc/nios2-elf/10.1.1/mhw-mulx\libgcc.a(fixsfsi.o)
 .debug_frame   0x000000000000028c       0x38 c:/intelfpga_lite/20.1/nios2eds/bin/gnu/h-x86_64-mingw32/bin/../lib/gcc/nios2-elf/10.1.1/mhw-mulx\libgcc.a(floatsisf.o)
 .debug_frame   0x00000000000002c4       0x20 c:/intelfpga_lite/20.1/nios2eds/bin/gnu/h-x86_64-mingw32/bin/../lib/gcc/nios2-elf/10.1.1/mhw-mulx\libgcc.a(_clzsi2.o)
 .debug_frame   0x00000000000002e4       0x48 c:/intelfpga_lite/20.1/nios2eds/bin/gnu/h-x86_64-mingw32/bin/../lib/gcc/nios2-elf/10.1.1/../../../../../H-x86_64-mingw32/nios2-elf/lib/mhw-mulx\libc.a(lib_a-puts.o)
 .debug_frame   0x000000000000032c       0x20 c:/intelfpga_lite/20.1/nios2eds/bin/gnu/h-x86_64-mingw32/bin/../lib/gcc/nios2-elf/10.1.1/../../../../../H-x86_64-mingw32/nios2-elf/lib/mhw-mulx\libc.a(lib_a-strlen.o)
 .debug_frame   0x000000000000034c      0x12c c:/intelfpga_lite/20.1/nios2eds/bin/gnu/h-x86_64-mingw32/bin/../lib/gcc/nios2-elf/10.1.1/../../../../../H-x86_64-mingw32/nios2-elf/lib/mhw-mulx\libc.a(lib_a-findfp.o)
 .debug_frame   0x0000000000000478       0x78 c:/intelfpga_lite/20.1/nios2eds/bin/gnu/h-x86_64-mingw32/bin/../lib/gcc/nios2-elf/10.1.1/../../../../../H-x86_64-mingw32/nios2-elf/lib/mhw-mulx\libc.a(lib_a-fvwrite.o)
 .debug_frame   0x00000000000004f0       0x74 c:/intelfpga_lite/20.1/nios2eds/bin/gnu/h-x86_64-mingw32/bin/../lib/gcc/nios2-elf/10.1.1/../../../../../H-x86_64-mingw32/nios2-elf/lib/mhw-mulx\libc.a(lib_a-fwalk.o)
 .debug_frame   0x0000000000000564       0x58 c:/intelfpga_lite/20.1/nios2eds/bin/gnu/h-x86_64-mingw32/bin/../lib/gcc/nios2-elf/10.1.1/../../../../../H-x86_64-mingw32/nios2-elf/lib/mhw-mulx\libc.a(lib_a-mallocr.o)
 .debug_frame   0x00000000000005bc       0x20 c:/intelfpga_lite/20.1/nios2eds/bin/gnu/h-x86_64-mingw32/bin/../lib/gcc/nios2-elf/10.1.1/../../../../../H-x86_64-mingw32/nios2-elf/lib/mhw-mulx\libc.a(lib_a-memchr.o)
 .debug_frame   0x00000000000005dc       0x20 c:/intelfpga_lite/20.1/nios2eds/bin/gnu/h-x86_64-mingw32/bin/../lib/gcc/nios2-elf/10.1.1/../../../../../H-x86_64-mingw32/nios2-elf/lib/mhw-mulx\libc.a(lib_a-memcpy.o)
 .debug_frame   0x00000000000005fc       0x20 c:/intelfpga_lite/20.1/nios2eds/bin/gnu/h-x86_64-mingw32/bin/../lib/gcc/nios2-elf/10.1.1/../../../../../H-x86_64-mingw32/nios2-elf/lib/mhw-mulx\libc.a(lib_a-memmove.o)
 .debug_frame   0x000000000000061c       0x20 c:/intelfpga_lite/20.1/nios2eds/bin/gnu/h-x86_64-mingw32/bin/../lib/gcc/nios2-elf/10.1.1/../../../../../H-x86_64-mingw32/nios2-elf/lib/mhw-mulx\libc.a(lib_a-memset.o)
 .debug_frame   0x000000000000063c       0x70 c:/intelfpga_lite/20.1/nios2eds/bin/gnu/h-x86_64-mingw32/bin/../lib/gcc/nios2-elf/10.1.1/../../../../../H-x86_64-mingw32/nios2-elf/lib/mhw-mulx\libc.a(lib_a-reallocr.o)
 .debug_frame   0x00000000000006ac       0x3c c:/intelfpga_lite/20.1/nios2eds/bin/gnu/h-x86_64-mingw32/bin/../lib/gcc/nios2-elf/10.1.1/../../../../../H-x86_64-mingw32/nios2-elf/lib/mhw-mulx\libc.a(lib_a-sbrkr.o)
 .debug_frame   0x00000000000006e8       0xb8 c:/intelfpga_lite/20.1/nios2eds/bin/gnu/h-x86_64-mingw32/bin/../lib/gcc/nios2-elf/10.1.1/../../../../../H-x86_64-mingw32/nios2-elf/lib/mhw-mulx\libc.a(lib_a-stdio.o)
 .debug_frame   0x00000000000007a0       0x3c c:/intelfpga_lite/20.1/nios2eds/bin/gnu/h-x86_64-mingw32/bin/../lib/gcc/nios2-elf/10.1.1/../../../../../H-x86_64-mingw32/nios2-elf/lib/mhw-mulx\libc.a(lib_a-writer.o)
 .debug_frame   0x00000000000007dc       0x38 c:/intelfpga_lite/20.1/nios2eds/bin/gnu/h-x86_64-mingw32/bin/../lib/gcc/nios2-elf/10.1.1/../../../../../H-x86_64-mingw32/nios2-elf/lib/mhw-mulx\libc.a(lib_a-wsetup.o)
 .debug_frame   0x0000000000000814       0x3c c:/intelfpga_lite/20.1/nios2eds/bin/gnu/h-x86_64-mingw32/bin/../lib/gcc/nios2-elf/10.1.1/../../../../../H-x86_64-mingw32/nios2-elf/lib/mhw-mulx\libc.a(closer.o)
 .debug_frame   0x0000000000000850       0x94 c:/intelfpga_lite/20.1/nios2eds/bin/gnu/h-x86_64-mingw32/bin/../lib/gcc/nios2-elf/10.1.1/../../../../../H-x86_64-mingw32/nios2-elf/lib/mhw-mulx\libc.a(lib_a-fclose.o)
 .debug_frame   0x00000000000008e4       0x94 c:/intelfpga_lite/20.1/nios2eds/bin/gnu/h-x86_64-mingw32/bin/../lib/gcc/nios2-elf/10.1.1/../../../../../H-x86_64-mingw32/nios2-elf/lib/mhw-mulx\libc.a(lib_a-fflush.o)
 .debug_frame   0x0000000000000978       0x78 c:/intelfpga_lite/20.1/nios2eds/bin/gnu/h-x86_64-mingw32/bin/../lib/gcc/nios2-elf/10.1.1/../../../../../H-x86_64-mingw32/nios2-elf/lib/mhw-mulx\libc.a(lib_a-freer.o)
 .debug_frame   0x00000000000009f0       0x3c c:/intelfpga_lite/20.1/nios2eds/bin/gnu/h-x86_64-mingw32/bin/../lib/gcc/nios2-elf/10.1.1/../../../../../H-x86_64-mingw32/nios2-elf/lib/mhw-mulx\libc.a(lib_a-lseekr.o)
 .debug_frame   0x0000000000000a2c       0x70 c:/intelfpga_lite/20.1/nios2eds/bin/gnu/h-x86_64-mingw32/bin/../lib/gcc/nios2-elf/10.1.1/../../../../../H-x86_64-mingw32/nios2-elf/lib/mhw-mulx\libc.a(lib_a-makebuf.o)
 .debug_frame   0x0000000000000a9c       0x3c c:/intelfpga_lite/20.1/nios2eds/bin/gnu/h-x86_64-mingw32/bin/../lib/gcc/nios2-elf/10.1.1/../../../../../H-x86_64-mingw32/nios2-elf/lib/mhw-mulx\libc.a(lib_a-readr.o)
 .debug_frame   0x0000000000000ad8       0x3c c:/intelfpga_lite/20.1/nios2eds/bin/gnu/h-x86_64-mingw32/bin/../lib/gcc/nios2-elf/10.1.1/../../../../../H-x86_64-mingw32/nios2-elf/lib/mhw-mulx\libc.a(lib_a-fstatr.o)
 .debug_frame   0x0000000000000b14       0x3c c:/intelfpga_lite/20.1/nios2eds/bin/gnu/h-x86_64-mingw32/bin/../lib/gcc/nios2-elf/10.1.1/../../../../../H-x86_64-mingw32/nios2-elf/lib/mhw-mulx\libc.a(lib_a-isattyr.o)
 .debug_frame   0x0000000000000b50       0x50 c:/intelfpga_lite/20.1/nios2eds/bin/gnu/h-x86_64-mingw32/bin/../lib/gcc/nios2-elf/10.1.1/mhw-mulx\libgcc.a(lib2-divmod.o)
 .debug_frame   0x0000000000000ba0       0x60 c:/users/bdunne/source/lcd_camera_example/lcd_camera_bsp\libhal_bsp.a(alt_close.o)
 .debug_frame   0x0000000000000c00       0x34 c:/users/bdunne/source/lcd_camera_example/lcd_camera_bsp\libhal_bsp.a(alt_dev.o)
 .debug_frame   0x0000000000000c34       0x60 c:/users/bdunne/source/lcd_camera_example/lcd_camera_bsp\libhal_bsp.a(alt_fstat.o)
 .debug_frame   0x0000000000000c94       0x60 c:/users/bdunne/source/lcd_camera_example/lcd_camera_bsp\libhal_bsp.a(alt_isatty.o)
 .debug_frame   0x0000000000000cf4       0x5c c:/users/bdunne/source/lcd_camera_example/lcd_camera_bsp\libhal_bsp.a(alt_load.o)
 .debug_frame   0x0000000000000d50       0x60 c:/users/bdunne/source/lcd_camera_example/lcd_camera_bsp\libhal_bsp.a(alt_lseek.o)
 .debug_frame   0x0000000000000db0       0x2c c:/users/bdunne/source/lcd_camera_example/lcd_camera_bsp\libhal_bsp.a(alt_main.o)
 .debug_frame   0x0000000000000ddc       0x58 c:/users/bdunne/source/lcd_camera_example/lcd_camera_bsp\libhal_bsp.a(alt_malloc_lock.o)
 .debug_frame   0x0000000000000e34       0x60 c:/users/bdunne/source/lcd_camera_example/lcd_camera_bsp\libhal_bsp.a(alt_read.o)
 .debug_frame   0x0000000000000e94       0x34 c:/users/bdunne/source/lcd_camera_example/lcd_camera_bsp\libhal_bsp.a(alt_release_fd.o)
 .debug_frame   0x0000000000000ec8       0x34 c:/users/bdunne/source/lcd_camera_example/lcd_camera_bsp\libhal_bsp.a(alt_sbrk.o)
 .debug_frame   0x0000000000000efc       0x60 c:/users/bdunne/source/lcd_camera_example/lcd_camera_bsp\libhal_bsp.a(alt_write.o)
 .debug_frame   0x0000000000000f5c       0x88 c:/users/bdunne/source/lcd_camera_example/lcd_camera_bsp\libhal_bsp.a(alt_sys_init.o)
 .debug_frame   0x0000000000000fe4      0x5d4 c:/users/bdunne/source/lcd_camera_example/lcd_camera_bsp\libhal_bsp.a(altera_avalon_i2c.o)
 .debug_frame   0x00000000000015b8       0xb0 c:/users/bdunne/source/lcd_camera_example/lcd_camera_bsp\libhal_bsp.a(altera_avalon_jtag_uart_fd.o)
 .debug_frame   0x0000000000001668       0xa4 c:/users/bdunne/source/lcd_camera_example/lcd_camera_bsp\libhal_bsp.a(altera_avalon_jtag_uart_init.o)
 .debug_frame   0x000000000000170c       0x34 c:/users/bdunne/source/lcd_camera_example/lcd_camera_bsp\libhal_bsp.a(altera_avalon_jtag_uart_ioctl.o)
 .debug_frame   0x0000000000001740       0x38 c:/users/bdunne/source/lcd_camera_example/lcd_camera_bsp\libhal_bsp.a(altera_avalon_jtag_uart_read.o)
 .debug_frame   0x0000000000001778       0x38 c:/users/bdunne/source/lcd_camera_example/lcd_camera_bsp\libhal_bsp.a(altera_avalon_jtag_uart_write.o)
 .debug_frame   0x00000000000017b0       0x60 c:/users/bdunne/source/lcd_camera_example/lcd_camera_bsp\libhal_bsp.a(altera_avalon_timer_sc.o)
 .debug_frame   0x0000000000001810      0x1cc c:/users/bdunne/source/lcd_camera_example/lcd_camera_bsp\libhal_bsp.a(dma_avalon_st_sink_to_mm_master.o)
 .debug_frame   0x00000000000019dc       0x84 c:/users/bdunne/source/lcd_camera_example/lcd_camera_bsp\libhal_bsp.a(lcd8080.o)
 .debug_frame   0x0000000000001a60       0x34 c:/users/bdunne/source/lcd_camera_example/lcd_camera_bsp\libhal_bsp.a(alt_alarm_start.o)
 .debug_frame   0x0000000000001a94       0x34 c:/users/bdunne/source/lcd_camera_example/lcd_camera_bsp\libhal_bsp.a(alt_busy_sleep.o)
 .debug_frame   0x0000000000001ac8       0x34 c:/users/bdunne/source/lcd_camera_example/lcd_camera_bsp\libhal_bsp.a(alt_dcache_flush_all.o)
 .debug_frame   0x0000000000001afc       0x60 c:/users/bdunne/source/lcd_camera_example/lcd_camera_bsp\libhal_bsp.a(alt_dev_llist_insert.o)
 .debug_frame   0x0000000000001b5c       0x38 c:/users/bdunne/source/lcd_camera_example/lcd_camera_bsp\libhal_bsp.a(alt_do_ctors.o)
 .debug_frame   0x0000000000001b94       0x38 c:/users/bdunne/source/lcd_camera_example/lcd_camera_bsp\libhal_bsp.a(alt_do_dtors.o)
 .debug_frame   0x0000000000001bcc       0x38 c:/users/bdunne/source/lcd_camera_example/lcd_camera_bsp\libhal_bsp.a(alt_find_dev.o)
 .debug_frame   0x0000000000001c04       0x38 c:/users/bdunne/source/lcd_camera_example/lcd_camera_bsp\libhal_bsp.a(alt_icache_flush_all.o)
 .debug_frame   0x0000000000001c3c       0xa4 c:/users/bdunne/source/lcd_camera_example/lcd_camera_bsp\libhal_bsp.a(alt_iic.o)
 .debug_frame   0x0000000000001ce0       0x38 c:/users/bdunne/source/lcd_camera_example/lcd_camera_bsp\libhal_bsp.a(alt_iic_isr_register.o)
 .debug_frame   0x0000000000001d18       0x60 c:/users/bdunne/source/lcd_camera_example/lcd_camera_bsp\libhal_bsp.a(alt_io_redirect.o)
 .debug_frame   0x0000000000001d78       0x38 c:/users/bdunne/source/lcd_camera_example/lcd_camera_bsp\libhal_bsp.a(alt_irq_handler.o)
 .debug_frame   0x0000000000001db0       0x84 c:/users/bdunne/source/lcd_camera_example/lcd_camera_bsp\libhal_bsp.a(alt_open.o)
 .debug_frame   0x0000000000001e34       0x38 c:/users/bdunne/source/lcd_camera_example/lcd_camera_bsp\libhal_bsp.a(alt_printf.o)
 .debug_frame   0x0000000000001e6c       0x38 c:/users/bdunne/source/lcd_camera_example/lcd_camera_bsp\libhal_bsp.a(alt_putchar.o)
 .debug_frame   0x0000000000001ea4       0x5c c:/users/bdunne/source/lcd_camera_example/lcd_camera_bsp\libhal_bsp.a(alt_tick.o)
 .debug_frame   0x0000000000001f00       0x34 c:/users/bdunne/source/lcd_camera_example/lcd_camera_bsp\libhal_bsp.a(altera_nios2_gen2_irq.o)
 .debug_frame   0x0000000000001f34       0x38 c:/users/bdunne/source/lcd_camera_example/lcd_camera_bsp\libhal_bsp.a(alt_find_file.o)
 .debug_frame   0x0000000000001f6c       0x34 c:/users/bdunne/source/lcd_camera_example/lcd_camera_bsp\libhal_bsp.a(alt_get_fd.o)
 .debug_frame   0x0000000000001fa0       0x34 c:/users/bdunne/source/lcd_camera_example/lcd_camera_bsp\libhal_bsp.a(alt_icache_flush.o)
 .debug_frame   0x0000000000001fd4       0x5c c:/users/bdunne/source/lcd_camera_example/lcd_camera_bsp\libhal_bsp.a(alt_instruction_exception_entry.o)
 .debug_frame   0x0000000000002030       0x20 c:/intelfpga_lite/20.1/nios2eds/bin/gnu/h-x86_64-mingw32/bin/../lib/gcc/nios2-elf/10.1.1/../../../../../H-x86_64-mingw32/nios2-elf/lib/mhw-mulx\libc.a(lib_a-atexit.o)
 .debug_frame   0x0000000000002050       0x28 c:/intelfpga_lite/20.1/nios2eds/bin/gnu/h-x86_64-mingw32/bin/../lib/gcc/nios2-elf/10.1.1/../../../../../H-x86_64-mingw32/nios2-elf/lib/mhw-mulx\libc.a(lib_a-exit.o)
 .debug_frame   0x0000000000002078       0x20 c:/intelfpga_lite/20.1/nios2eds/bin/gnu/h-x86_64-mingw32/bin/../lib/gcc/nios2-elf/10.1.1/../../../../../H-x86_64-mingw32/nios2-elf/lib/mhw-mulx\libc.a(lib_a-memcmp.o)
 .debug_frame   0x0000000000002098       0x30 c:/intelfpga_lite/20.1/nios2eds/bin/gnu/h-x86_64-mingw32/bin/../lib/gcc/nios2-elf/10.1.1/../../../../../H-x86_64-mingw32/nios2-elf/lib/mhw-mulx\libc.a(lib_a-putchar.o)
 .debug_frame   0x00000000000020c8       0x20 c:/intelfpga_lite/20.1/nios2eds/bin/gnu/h-x86_64-mingw32/bin/../lib/gcc/nios2-elf/10.1.1/../../../../../H-x86_64-mingw32/nios2-elf/lib/mhw-mulx\libc.a(lib_a-__atexit.o)
 .debug_frame   0x00000000000020e8       0x54 c:/intelfpga_lite/20.1/nios2eds/bin/gnu/h-x86_64-mingw32/bin/../lib/gcc/nios2-elf/10.1.1/../../../../../H-x86_64-mingw32/nios2-elf/lib/mhw-mulx\libc.a(lib_a-__call_atexit.o)
 .debug_frame   0x000000000000213c       0x78 c:/intelfpga_lite/20.1/nios2eds/bin/gnu/h-x86_64-mingw32/bin/../lib/gcc/nios2-elf/10.1.1/../../../../../H-x86_64-mingw32/nios2-elf/lib/mhw-mulx\libc.a(lib_a-putc.o)
 .debug_frame   0x00000000000021b4       0x50 c:/intelfpga_lite/20.1/nios2eds/bin/gnu/h-x86_64-mingw32/bin/../lib/gcc/nios2-elf/10.1.1/../../../../../H-x86_64-mingw32/nios2-elf/lib/mhw-mulx\libc.a(lib_a-wbuf.o)
 .debug_frame   0x0000000000002204       0x2c c:/users/bdunne/source/lcd_camera_example/lcd_camera_bsp\libhal_bsp.a(alt_exit.o)

.debug_str      0x0000000000000000     0x3c28
 *(.debug_str)
 .debug_str     0x0000000000000000       0x57 c:/users/bdunne/source/lcd_camera_example/lcd_camera_bsp/obj/HAL/src/crt0.o
 .debug_str     0x0000000000000057      0x545 obj/default/camera.o
                                        0x5d6 (size before relaxing)
 .debug_str     0x000000000000059c      0x120 obj/default/main.o
                                        0x2ec (size before relaxing)
 .debug_str     0x00000000000006bc      0x187 c:/intelfpga_lite/20.1/nios2eds/bin/gnu/h-x86_64-mingw32/bin/../lib/gcc/nios2-elf/10.1.1/mhw-mulx\libgcc.a(_fixunssfsi.o)
                                        0x215 (size before relaxing)
 .debug_str     0x0000000000000843       0x97 c:/intelfpga_lite/20.1/nios2eds/bin/gnu/h-x86_64-mingw32/bin/../lib/gcc/nios2-elf/10.1.1/mhw-mulx\libgcc.a(gesf2.o)
                                        0x232 (size before relaxing)
 .debug_str     0x00000000000008da      0x11e c:/intelfpga_lite/20.1/nios2eds/bin/gnu/h-x86_64-mingw32/bin/../lib/gcc/nios2-elf/10.1.1/mhw-mulx\libgcc.a(subsf3.o)
                                        0x2ea (size before relaxing)
 .debug_str     0x00000000000009f8       0x47 c:/intelfpga_lite/20.1/nios2eds/bin/gnu/h-x86_64-mingw32/bin/../lib/gcc/nios2-elf/10.1.1/mhw-mulx\libgcc.a(fixsfsi.o)
                                        0x223 (size before relaxing)
 .debug_str     0x0000000000000a3f       0x6f c:/intelfpga_lite/20.1/nios2eds/bin/gnu/h-x86_64-mingw32/bin/../lib/gcc/nios2-elf/10.1.1/mhw-mulx\libgcc.a(floatsisf.o)
                                        0x2b5 (size before relaxing)
 .debug_str     0x0000000000000aae       0x17 c:/intelfpga_lite/20.1/nios2eds/bin/gnu/h-x86_64-mingw32/bin/../lib/gcc/nios2-elf/10.1.1/mhw-mulx\libgcc.a(_clzsi2.o)
                                        0x206 (size before relaxing)
 .debug_str     0x0000000000000ac5      0x1e9 c:/intelfpga_lite/20.1/nios2eds/bin/gnu/h-x86_64-mingw32/bin/../lib/gcc/nios2-elf/10.1.1/mhw-mulx\libgcc.a(_clz.o)
 .debug_str     0x0000000000000ac5      0x4f8 c:/intelfpga_lite/20.1/nios2eds/bin/gnu/h-x86_64-mingw32/bin/../lib/gcc/nios2-elf/10.1.1/../../../../../H-x86_64-mingw32/nios2-elf/lib/mhw-mulx\libc.a(lib_a-puts.o)
                                        0x619 (size before relaxing)
 .debug_str     0x0000000000000fbd       0xda c:/intelfpga_lite/20.1/nios2eds/bin/gnu/h-x86_64-mingw32/bin/../lib/gcc/nios2-elf/10.1.1/../../../../../H-x86_64-mingw32/nios2-elf/lib/mhw-mulx\libc.a(lib_a-strlen.o)
                                        0x1ea (size before relaxing)
 .debug_str     0x0000000000001097      0x195 c:/intelfpga_lite/20.1/nios2eds/bin/gnu/h-x86_64-mingw32/bin/../lib/gcc/nios2-elf/10.1.1/../../../../../H-x86_64-mingw32/nios2-elf/lib/mhw-mulx\libc.a(lib_a-findfp.o)
                                        0x717 (size before relaxing)
 .debug_str     0x000000000000122c       0xaf c:/intelfpga_lite/20.1/nios2eds/bin/gnu/h-x86_64-mingw32/bin/../lib/gcc/nios2-elf/10.1.1/../../../../../H-x86_64-mingw32/nios2-elf/lib/mhw-mulx\libc.a(lib_a-fvwrite.o)
                                        0x65e (size before relaxing)
 .debug_str     0x00000000000012db       0x4c c:/intelfpga_lite/20.1/nios2eds/bin/gnu/h-x86_64-mingw32/bin/../lib/gcc/nios2-elf/10.1.1/../../../../../H-x86_64-mingw32/nios2-elf/lib/mhw-mulx\libc.a(lib_a-fwalk.o)
                                        0x5b7 (size before relaxing)
 .debug_str     0x0000000000001327       0xd7 c:/intelfpga_lite/20.1/nios2eds/bin/gnu/h-x86_64-mingw32/bin/../lib/gcc/nios2-elf/10.1.1/../../../../../H-x86_64-mingw32/nios2-elf/lib/mhw-mulx\libc.a(lib_a-impure.o)
                                        0x5b2 (size before relaxing)
 .debug_str     0x00000000000013fe      0x2bc c:/intelfpga_lite/20.1/nios2eds/bin/gnu/h-x86_64-mingw32/bin/../lib/gcc/nios2-elf/10.1.1/../../../../../H-x86_64-mingw32/nios2-elf/lib/mhw-mulx\libc.a(lib_a-mallocr.o)
                                        0x7b7 (size before relaxing)
 .debug_str     0x00000000000016ba       0x54 c:/intelfpga_lite/20.1/nios2eds/bin/gnu/h-x86_64-mingw32/bin/../lib/gcc/nios2-elf/10.1.1/../../../../../H-x86_64-mingw32/nios2-elf/lib/mhw-mulx\libc.a(lib_a-memchr.o)
                                        0x1f1 (size before relaxing)
 .debug_str     0x000000000000170e       0x66 c:/intelfpga_lite/20.1/nios2eds/bin/gnu/h-x86_64-mingw32/bin/../lib/gcc/nios2-elf/10.1.1/../../../../../H-x86_64-mingw32/nios2-elf/lib/mhw-mulx\libc.a(lib_a-memcpy.o)
                                        0x1fe (size before relaxing)
 .debug_str     0x0000000000001774       0x49 c:/intelfpga_lite/20.1/nios2eds/bin/gnu/h-x86_64-mingw32/bin/../lib/gcc/nios2-elf/10.1.1/../../../../../H-x86_64-mingw32/nios2-elf/lib/mhw-mulx\libc.a(lib_a-memmove.o)
                                        0x20a (size before relaxing)
 .debug_str     0x00000000000017bd       0x3f c:/intelfpga_lite/20.1/nios2eds/bin/gnu/h-x86_64-mingw32/bin/../lib/gcc/nios2-elf/10.1.1/../../../../../H-x86_64-mingw32/nios2-elf/lib/mhw-mulx\libc.a(lib_a-memset.o)
                                        0x1eb (size before relaxing)
 .debug_str     0x00000000000017fc       0x4e c:/intelfpga_lite/20.1/nios2eds/bin/gnu/h-x86_64-mingw32/bin/../lib/gcc/nios2-elf/10.1.1/../../../../../H-x86_64-mingw32/nios2-elf/lib/mhw-mulx\libc.a(lib_a-reallocr.o)
                                        0x693 (size before relaxing)
 .debug_str     0x000000000000184a       0x51 c:/intelfpga_lite/20.1/nios2eds/bin/gnu/h-x86_64-mingw32/bin/../lib/gcc/nios2-elf/10.1.1/../../../../../H-x86_64-mingw32/nios2-elf/lib/mhw-mulx\libc.a(lib_a-sbrkr.o)
                                        0x5a8 (size before relaxing)
 .debug_str     0x000000000000189b       0x9d c:/intelfpga_lite/20.1/nios2eds/bin/gnu/h-x86_64-mingw32/bin/../lib/gcc/nios2-elf/10.1.1/../../../../../H-x86_64-mingw32/nios2-elf/lib/mhw-mulx\libc.a(lib_a-stdio.o)
                                        0x606 (size before relaxing)
 .debug_str     0x0000000000001938       0x3e c:/intelfpga_lite/20.1/nios2eds/bin/gnu/h-x86_64-mingw32/bin/../lib/gcc/nios2-elf/10.1.1/../../../../../H-x86_64-mingw32/nios2-elf/lib/mhw-mulx\libc.a(lib_a-writer.o)
                                        0x5ac (size before relaxing)
 .debug_str     0x0000000000001976       0x4b c:/intelfpga_lite/20.1/nios2eds/bin/gnu/h-x86_64-mingw32/bin/../lib/gcc/nios2-elf/10.1.1/../../../../../H-x86_64-mingw32/nios2-elf/lib/mhw-mulx\libc.a(lib_a-wsetup.o)
                                        0x5d1 (size before relaxing)
 .debug_str     0x00000000000019c1       0x3e c:/intelfpga_lite/20.1/nios2eds/bin/gnu/h-x86_64-mingw32/bin/../lib/gcc/nios2-elf/10.1.1/../../../../../H-x86_64-mingw32/nios2-elf/lib/mhw-mulx\libc.a(closer.o)
                                        0x59c (size before relaxing)
 .debug_str     0x00000000000019ff       0x5f c:/intelfpga_lite/20.1/nios2eds/bin/gnu/h-x86_64-mingw32/bin/../lib/gcc/nios2-elf/10.1.1/../../../../../H-x86_64-mingw32/nios2-elf/lib/mhw-mulx\libc.a(lib_a-fclose.o)
                                        0x5ff (size before relaxing)
 .debug_str     0x0000000000001a5e       0x56 c:/intelfpga_lite/20.1/nios2eds/bin/gnu/h-x86_64-mingw32/bin/../lib/gcc/nios2-elf/10.1.1/../../../../../H-x86_64-mingw32/nios2-elf/lib/mhw-mulx\libc.a(lib_a-fflush.o)
                                        0x612 (size before relaxing)
 .debug_str     0x0000000000001ab4       0x34 c:/intelfpga_lite/20.1/nios2eds/bin/gnu/h-x86_64-mingw32/bin/../lib/gcc/nios2-elf/10.1.1/../../../../../H-x86_64-mingw32/nios2-elf/lib/mhw-mulx\libc.a(lib_a-freer.o)
                                        0x701 (size before relaxing)
 .debug_str     0x0000000000001ae8       0x41 c:/intelfpga_lite/20.1/nios2eds/bin/gnu/h-x86_64-mingw32/bin/../lib/gcc/nios2-elf/10.1.1/../../../../../H-x86_64-mingw32/nios2-elf/lib/mhw-mulx\libc.a(lib_a-int_errno.o)
                                        0x1d0 (size before relaxing)
 .debug_str     0x0000000000001b29       0x44 c:/intelfpga_lite/20.1/nios2eds/bin/gnu/h-x86_64-mingw32/bin/../lib/gcc/nios2-elf/10.1.1/../../../../../H-x86_64-mingw32/nios2-elf/lib/mhw-mulx\libc.a(lib_a-lseekr.o)
                                        0x5a3 (size before relaxing)
 .debug_str     0x0000000000001b6d      0x16c c:/intelfpga_lite/20.1/nios2eds/bin/gnu/h-x86_64-mingw32/bin/../lib/gcc/nios2-elf/10.1.1/../../../../../H-x86_64-mingw32/nios2-elf/lib/mhw-mulx\libc.a(lib_a-makebuf.o)
                                        0x733 (size before relaxing)
 .debug_str     0x0000000000001cd9       0x3d c:/intelfpga_lite/20.1/nios2eds/bin/gnu/h-x86_64-mingw32/bin/../lib/gcc/nios2-elf/10.1.1/../../../../../H-x86_64-mingw32/nios2-elf/lib/mhw-mulx\libc.a(lib_a-readr.o)
                                        0x5a9 (size before relaxing)
 .debug_str     0x0000000000001d16       0x4a c:/intelfpga_lite/20.1/nios2eds/bin/gnu/h-x86_64-mingw32/bin/../lib/gcc/nios2-elf/10.1.1/../../../../../H-x86_64-mingw32/nios2-elf/lib/mhw-mulx\libc.a(lib_a-fstatr.o)
                                        0x6e7 (size before relaxing)
 .debug_str     0x0000000000001d60       0x46 c:/intelfpga_lite/20.1/nios2eds/bin/gnu/h-x86_64-mingw32/bin/../lib/gcc/nios2-elf/10.1.1/../../../../../H-x86_64-mingw32/nios2-elf/lib/mhw-mulx\libc.a(lib_a-isattyr.o)
                                        0x59f (size before relaxing)
 .debug_str     0x0000000000001da6       0x79 c:/intelfpga_lite/20.1/nios2eds/bin/gnu/h-x86_64-mingw32/bin/../lib/gcc/nios2-elf/10.1.1/mhw-mulx\libgcc.a(lib2-divmod.o)
                                        0x1dc (size before relaxing)
 .debug_str     0x0000000000001e1f       0x7b c:/users/bdunne/source/lcd_camera_example/lcd_camera_bsp\libhal_bsp.a(alt_close.o)
                                        0x20b (size before relaxing)
 .debug_str     0x0000000000001e9a       0x5d c:/users/bdunne/source/lcd_camera_example/lcd_camera_bsp\libhal_bsp.a(alt_dev.o)
                                        0x371 (size before relaxing)
 .debug_str     0x0000000000001ef7       0x14 c:/users/bdunne/source/lcd_camera_example/lcd_camera_bsp\libhal_bsp.a(alt_errno.o)
                                        0x14c (size before relaxing)
 .debug_str     0x0000000000001f0b       0x14 c:/users/bdunne/source/lcd_camera_example/lcd_camera_bsp\libhal_bsp.a(alt_fstat.o)
                                        0x34b (size before relaxing)
 .debug_str     0x0000000000001f1f       0x15 c:/users/bdunne/source/lcd_camera_example/lcd_camera_bsp\libhal_bsp.a(alt_isatty.o)
                                        0x353 (size before relaxing)
 .debug_str     0x0000000000001f34       0xe9 c:/users/bdunne/source/lcd_camera_example/lcd_camera_bsp\libhal_bsp.a(alt_load.o)
                                        0x21f (size before relaxing)
 .debug_str     0x000000000000201d       0x14 c:/users/bdunne/source/lcd_camera_example/lcd_camera_bsp\libhal_bsp.a(alt_lseek.o)
                                        0x219 (size before relaxing)
 .debug_str     0x0000000000002031       0x44 c:/users/bdunne/source/lcd_camera_example/lcd_camera_bsp\libhal_bsp.a(alt_main.o)
                                        0x179 (size before relaxing)
 .debug_str     0x0000000000002075       0x1a c:/users/bdunne/source/lcd_camera_example/lcd_camera_bsp\libhal_bsp.a(alt_malloc_lock.o)
                                        0x526 (size before relaxing)
 .debug_str     0x000000000000208f       0x13 c:/users/bdunne/source/lcd_camera_example/lcd_camera_bsp\libhal_bsp.a(alt_read.o)
                                        0x356 (size before relaxing)
 .debug_str     0x00000000000020a2       0x28 c:/users/bdunne/source/lcd_camera_example/lcd_camera_bsp\libhal_bsp.a(alt_release_fd.o)
                                        0x1dc (size before relaxing)
 .debug_str     0x00000000000020ca       0x82 c:/users/bdunne/source/lcd_camera_example/lcd_camera_bsp\libhal_bsp.a(alt_sbrk.o)
                                        0x1cb (size before relaxing)
 .debug_str     0x000000000000214c       0x14 c:/users/bdunne/source/lcd_camera_example/lcd_camera_bsp\libhal_bsp.a(alt_write.o)
                                        0x357 (size before relaxing)
 .debug_str     0x0000000000002160      0x167 c:/users/bdunne/source/lcd_camera_example/lcd_camera_bsp\libhal_bsp.a(alt_sys_init.o)
                                        0x564 (size before relaxing)
 .debug_str     0x00000000000022c7      0x81f c:/users/bdunne/source/lcd_camera_example/lcd_camera_bsp\libhal_bsp.a(altera_avalon_i2c.o)
                                        0xc65 (size before relaxing)
 .debug_str     0x0000000000002ae6       0xb2 c:/users/bdunne/source/lcd_camera_example/lcd_camera_bsp\libhal_bsp.a(altera_avalon_jtag_uart_fd.o)
                                        0x389 (size before relaxing)
 .debug_str     0x0000000000002b98       0xd8 c:/users/bdunne/source/lcd_camera_example/lcd_camera_bsp\libhal_bsp.a(altera_avalon_jtag_uart_init.o)
                                        0x32c (size before relaxing)
 .debug_str     0x0000000000002c70       0x4a c:/users/bdunne/source/lcd_camera_example/lcd_camera_bsp\libhal_bsp.a(altera_avalon_jtag_uart_ioctl.o)
                                        0x278 (size before relaxing)
 .debug_str     0x0000000000002cba       0x48 c:/users/bdunne/source/lcd_camera_example/lcd_camera_bsp\libhal_bsp.a(altera_avalon_jtag_uart_read.o)
                                        0x2cd (size before relaxing)
 .debug_str     0x0000000000002d02       0x4a c:/users/bdunne/source/lcd_camera_example/lcd_camera_bsp\libhal_bsp.a(altera_avalon_jtag_uart_write.o)
                                        0x2ce (size before relaxing)
 .debug_str     0x0000000000002d4c       0x6b c:/users/bdunne/source/lcd_camera_example/lcd_camera_bsp\libhal_bsp.a(altera_avalon_timer_sc.o)
                                        0x21b (size before relaxing)
 .debug_str     0x0000000000002db7      0x149 c:/users/bdunne/source/lcd_camera_example/lcd_camera_bsp\libhal_bsp.a(dma_avalon_st_sink_to_mm_master.o)
                                        0x3b2 (size before relaxing)
 .debug_str     0x0000000000002f00       0x4f c:/users/bdunne/source/lcd_camera_example/lcd_camera_bsp\libhal_bsp.a(lcd8080.o)
                                        0x211 (size before relaxing)
 .debug_str     0x0000000000002f4f       0x65 c:/users/bdunne/source/lcd_camera_example/lcd_camera_bsp\libhal_bsp.a(alt_alarm_start.o)
                                        0x28b (size before relaxing)
 .debug_str     0x0000000000002fb4       0x42 c:/users/bdunne/source/lcd_camera_example/lcd_camera_bsp\libhal_bsp.a(alt_busy_sleep.o)
                                        0x178 (size before relaxing)
 .debug_str     0x0000000000002ff6       0x34 c:/users/bdunne/source/lcd_camera_example/lcd_camera_bsp\libhal_bsp.a(alt_dcache_flush_all.o)
                                        0x162 (size before relaxing)
 .debug_str     0x000000000000302a       0x34 c:/users/bdunne/source/lcd_camera_example/lcd_camera_bsp\libhal_bsp.a(alt_dev_llist_insert.o)
                                        0x1d9 (size before relaxing)
 .debug_str     0x000000000000305e       0x48 c:/users/bdunne/source/lcd_camera_example/lcd_camera_bsp\libhal_bsp.a(alt_do_ctors.o)
                                         0xe6 (size before relaxing)
 .debug_str     0x00000000000030a6       0x4c c:/users/bdunne/source/lcd_camera_example/lcd_camera_bsp\libhal_bsp.a(alt_do_dtors.o)
                                         0xe5 (size before relaxing)
 .debug_str     0x00000000000030f2       0x24 c:/users/bdunne/source/lcd_camera_example/lcd_camera_bsp\libhal_bsp.a(alt_find_dev.o)
                                        0x1ec (size before relaxing)
 .debug_str     0x0000000000003116       0x34 c:/users/bdunne/source/lcd_camera_example/lcd_camera_bsp\libhal_bsp.a(alt_icache_flush_all.o)
                                        0x162 (size before relaxing)
 .debug_str     0x000000000000314a       0xab c:/users/bdunne/source/lcd_camera_example/lcd_camera_bsp\libhal_bsp.a(alt_iic.o)
                                        0x239 (size before relaxing)
 .debug_str     0x00000000000031f5       0x4c c:/users/bdunne/source/lcd_camera_example/lcd_camera_bsp\libhal_bsp.a(alt_iic_isr_register.o)
                                        0x1f5 (size before relaxing)
 .debug_str     0x0000000000003241       0x56 c:/users/bdunne/source/lcd_camera_example/lcd_camera_bsp\libhal_bsp.a(alt_io_redirect.o)
                                        0x375 (size before relaxing)
 .debug_str     0x0000000000003297       0x18 c:/users/bdunne/source/lcd_camera_example/lcd_camera_bsp\libhal_bsp.a(alt_irq_entry.o)
                                         0x60 (size before relaxing)
 .debug_str     0x00000000000032af       0x3a c:/users/bdunne/source/lcd_camera_example/lcd_camera_bsp\libhal_bsp.a(alt_irq_handler.o)
                                        0x1a4 (size before relaxing)
 .debug_str     0x00000000000032e9       0x29 c:/users/bdunne/source/lcd_camera_example/lcd_camera_bsp\libhal_bsp.a(alt_irq_vars.o)
                                        0x150 (size before relaxing)
 .debug_str     0x0000000000003312       0x29 c:/users/bdunne/source/lcd_camera_example/lcd_camera_bsp\libhal_bsp.a(alt_open.o)
                                        0x258 (size before relaxing)
 .debug_str     0x000000000000333b       0x53 c:/users/bdunne/source/lcd_camera_example/lcd_camera_bsp\libhal_bsp.a(alt_printf.o)
                                        0x110 (size before relaxing)
 .debug_str     0x000000000000338e       0x22 c:/users/bdunne/source/lcd_camera_example/lcd_camera_bsp\libhal_bsp.a(alt_putchar.o)
                                        0x150 (size before relaxing)
 .debug_str     0x00000000000033b0       0x4a c:/users/bdunne/source/lcd_camera_example/lcd_camera_bsp\libhal_bsp.a(alt_tick.o)
                                        0x25f (size before relaxing)
 .debug_str     0x00000000000033fa       0x3b c:/users/bdunne/source/lcd_camera_example/lcd_camera_bsp\libhal_bsp.a(altera_nios2_gen2_irq.o)
                                        0x169 (size before relaxing)
 .debug_str     0x0000000000003435       0x1e c:/users/bdunne/source/lcd_camera_example/lcd_camera_bsp\libhal_bsp.a(alt_exception_entry.o)
                                         0x66 (size before relaxing)
 .debug_str     0x0000000000003453       0x26 c:/users/bdunne/source/lcd_camera_example/lcd_camera_bsp\libhal_bsp.a(alt_find_file.o)
                                        0x1fa (size before relaxing)
 .debug_str     0x0000000000003479       0x30 c:/users/bdunne/source/lcd_camera_example/lcd_camera_bsp\libhal_bsp.a(alt_get_fd.o)
                                        0x21c (size before relaxing)
 .debug_str     0x00000000000034a9       0x2c c:/users/bdunne/source/lcd_camera_example/lcd_camera_bsp\libhal_bsp.a(alt_icache_flush.o)
                                        0x168 (size before relaxing)
 .debug_str     0x00000000000034d5      0x48b c:/users/bdunne/source/lcd_camera_example/lcd_camera_bsp\libhal_bsp.a(alt_instruction_exception_entry.o)
                                        0x5b6 (size before relaxing)
 .debug_str     0x0000000000003960       0x83 c:/intelfpga_lite/20.1/nios2eds/bin/gnu/h-x86_64-mingw32/bin/../lib/gcc/nios2-elf/10.1.1/../../../../../H-x86_64-mingw32/nios2-elf/lib/mhw-mulx\libc.a(lib_a-atexit.o)
                                        0x214 (size before relaxing)
 .debug_str     0x00000000000039e3       0x4e c:/intelfpga_lite/20.1/nios2eds/bin/gnu/h-x86_64-mingw32/bin/../lib/gcc/nios2-elf/10.1.1/../../../../../H-x86_64-mingw32/nios2-elf/lib/mhw-mulx\libc.a(lib_a-exit.o)
                                        0x5bb (size before relaxing)
 .debug_str     0x0000000000003a31       0x46 c:/intelfpga_lite/20.1/nios2eds/bin/gnu/h-x86_64-mingw32/bin/../lib/gcc/nios2-elf/10.1.1/../../../../../H-x86_64-mingw32/nios2-elf/lib/mhw-mulx\libc.a(lib_a-memcmp.o)
                                        0x1d7 (size before relaxing)
 .debug_str     0x0000000000003a77       0x52 c:/intelfpga_lite/20.1/nios2eds/bin/gnu/h-x86_64-mingw32/bin/../lib/gcc/nios2-elf/10.1.1/../../../../../H-x86_64-mingw32/nios2-elf/lib/mhw-mulx\libc.a(lib_a-putchar.o)
                                        0x5b5 (size before relaxing)
 .debug_str     0x0000000000003ac9       0x41 c:/intelfpga_lite/20.1/nios2eds/bin/gnu/h-x86_64-mingw32/bin/../lib/gcc/nios2-elf/10.1.1/../../../../../H-x86_64-mingw32/nios2-elf/lib/mhw-mulx\libc.a(lib_a-__atexit.o)
                                        0x5ec (size before relaxing)
 .debug_str     0x0000000000003b0a       0x65 c:/intelfpga_lite/20.1/nios2eds/bin/gnu/h-x86_64-mingw32/bin/../lib/gcc/nios2-elf/10.1.1/../../../../../H-x86_64-mingw32/nios2-elf/lib/mhw-mulx\libc.a(lib_a-__call_atexit.o)
                                        0x5e5 (size before relaxing)
 .debug_str     0x0000000000003b6f       0x4b c:/intelfpga_lite/20.1/nios2eds/bin/gnu/h-x86_64-mingw32/bin/../lib/gcc/nios2-elf/10.1.1/../../../../../H-x86_64-mingw32/nios2-elf/lib/mhw-mulx\libc.a(lib_a-putc.o)
                                        0x5d2 (size before relaxing)
 .debug_str     0x0000000000003bba       0x44 c:/intelfpga_lite/20.1/nios2eds/bin/gnu/h-x86_64-mingw32/bin/../lib/gcc/nios2-elf/10.1.1/../../../../../H-x86_64-mingw32/nios2-elf/lib/mhw-mulx\libc.a(lib_a-wbuf.o)
                                        0x5d6 (size before relaxing)
 .debug_str     0x0000000000003bfe       0x2a c:/users/bdunne/source/lcd_camera_example/lcd_camera_bsp\libhal_bsp.a(alt_exit.o)
                                        0x15e (size before relaxing)

.debug_loc      0x0000000000000000     0x7517
 *(.debug_loc)
 .debug_loc     0x0000000000000000       0x27 c:/intelfpga_lite/20.1/nios2eds/bin/gnu/h-x86_64-mingw32/bin/../lib/gcc/nios2-elf/10.1.1/mhw-mulx\libgcc.a(_fixunssfsi.o)
 .debug_loc     0x0000000000000027      0x17e c:/intelfpga_lite/20.1/nios2eds/bin/gnu/h-x86_64-mingw32/bin/../lib/gcc/nios2-elf/10.1.1/mhw-mulx\libgcc.a(gesf2.o)
 .debug_loc     0x00000000000001a5      0xa77 c:/intelfpga_lite/20.1/nios2eds/bin/gnu/h-x86_64-mingw32/bin/../lib/gcc/nios2-elf/10.1.1/mhw-mulx\libgcc.a(subsf3.o)
 .debug_loc     0x0000000000000c1c      0x136 c:/intelfpga_lite/20.1/nios2eds/bin/gnu/h-x86_64-mingw32/bin/../lib/gcc/nios2-elf/10.1.1/mhw-mulx\libgcc.a(fixsfsi.o)
 .debug_loc     0x0000000000000d52      0x250 c:/intelfpga_lite/20.1/nios2eds/bin/gnu/h-x86_64-mingw32/bin/../lib/gcc/nios2-elf/10.1.1/mhw-mulx\libgcc.a(floatsisf.o)
 .debug_loc     0x0000000000000fa2       0xbe c:/intelfpga_lite/20.1/nios2eds/bin/gnu/h-x86_64-mingw32/bin/../lib/gcc/nios2-elf/10.1.1/mhw-mulx\libgcc.a(_clzsi2.o)
 .debug_loc     0x0000000000001060      0x143 c:/intelfpga_lite/20.1/nios2eds/bin/gnu/h-x86_64-mingw32/bin/../lib/gcc/nios2-elf/10.1.1/../../../../../H-x86_64-mingw32/nios2-elf/lib/mhw-mulx\libc.a(lib_a-puts.o)
 .debug_loc     0x00000000000011a3       0x73 c:/intelfpga_lite/20.1/nios2eds/bin/gnu/h-x86_64-mingw32/bin/../lib/gcc/nios2-elf/10.1.1/../../../../../H-x86_64-mingw32/nios2-elf/lib/mhw-mulx\libc.a(lib_a-strlen.o)
 .debug_loc     0x0000000000001216      0x32c c:/intelfpga_lite/20.1/nios2eds/bin/gnu/h-x86_64-mingw32/bin/../lib/gcc/nios2-elf/10.1.1/../../../../../H-x86_64-mingw32/nios2-elf/lib/mhw-mulx\libc.a(lib_a-findfp.o)
 .debug_loc     0x0000000000001542      0x75a c:/intelfpga_lite/20.1/nios2eds/bin/gnu/h-x86_64-mingw32/bin/../lib/gcc/nios2-elf/10.1.1/../../../../../H-x86_64-mingw32/nios2-elf/lib/mhw-mulx\libc.a(lib_a-fvwrite.o)
 .debug_loc     0x0000000000001c9c      0x1eb c:/intelfpga_lite/20.1/nios2eds/bin/gnu/h-x86_64-mingw32/bin/../lib/gcc/nios2-elf/10.1.1/../../../../../H-x86_64-mingw32/nios2-elf/lib/mhw-mulx\libc.a(lib_a-fwalk.o)
 .debug_loc     0x0000000000001e87      0xd34 c:/intelfpga_lite/20.1/nios2eds/bin/gnu/h-x86_64-mingw32/bin/../lib/gcc/nios2-elf/10.1.1/../../../../../H-x86_64-mingw32/nios2-elf/lib/mhw-mulx\libc.a(lib_a-mallocr.o)
 .debug_loc     0x0000000000002bbb      0x240 c:/intelfpga_lite/20.1/nios2eds/bin/gnu/h-x86_64-mingw32/bin/../lib/gcc/nios2-elf/10.1.1/../../../../../H-x86_64-mingw32/nios2-elf/lib/mhw-mulx\libc.a(lib_a-memchr.o)
 .debug_loc     0x0000000000002dfb      0x347 c:/intelfpga_lite/20.1/nios2eds/bin/gnu/h-x86_64-mingw32/bin/../lib/gcc/nios2-elf/10.1.1/../../../../../H-x86_64-mingw32/nios2-elf/lib/mhw-mulx\libc.a(lib_a-memcpy.o)
 .debug_loc     0x0000000000003142      0x3ff c:/intelfpga_lite/20.1/nios2eds/bin/gnu/h-x86_64-mingw32/bin/../lib/gcc/nios2-elf/10.1.1/../../../../../H-x86_64-mingw32/nios2-elf/lib/mhw-mulx\libc.a(lib_a-memmove.o)
 .debug_loc     0x0000000000003541      0x1b5 c:/intelfpga_lite/20.1/nios2eds/bin/gnu/h-x86_64-mingw32/bin/../lib/gcc/nios2-elf/10.1.1/../../../../../H-x86_64-mingw32/nios2-elf/lib/mhw-mulx\libc.a(lib_a-memset.o)
 .debug_loc     0x00000000000036f6     0x11ff c:/intelfpga_lite/20.1/nios2eds/bin/gnu/h-x86_64-mingw32/bin/../lib/gcc/nios2-elf/10.1.1/../../../../../H-x86_64-mingw32/nios2-elf/lib/mhw-mulx\libc.a(lib_a-reallocr.o)
 .debug_loc     0x00000000000048f5       0x89 c:/intelfpga_lite/20.1/nios2eds/bin/gnu/h-x86_64-mingw32/bin/../lib/gcc/nios2-elf/10.1.1/../../../../../H-x86_64-mingw32/nios2-elf/lib/mhw-mulx\libc.a(lib_a-sbrkr.o)
 .debug_loc     0x000000000000497e      0x43c c:/intelfpga_lite/20.1/nios2eds/bin/gnu/h-x86_64-mingw32/bin/../lib/gcc/nios2-elf/10.1.1/../../../../../H-x86_64-mingw32/nios2-elf/lib/mhw-mulx\libc.a(lib_a-stdio.o)
 .debug_loc     0x0000000000004dba       0xed c:/intelfpga_lite/20.1/nios2eds/bin/gnu/h-x86_64-mingw32/bin/../lib/gcc/nios2-elf/10.1.1/../../../../../H-x86_64-mingw32/nios2-elf/lib/mhw-mulx\libc.a(lib_a-writer.o)
 .debug_loc     0x0000000000004ea7       0xd4 c:/intelfpga_lite/20.1/nios2eds/bin/gnu/h-x86_64-mingw32/bin/../lib/gcc/nios2-elf/10.1.1/../../../../../H-x86_64-mingw32/nios2-elf/lib/mhw-mulx\libc.a(lib_a-wsetup.o)
 .debug_loc     0x0000000000004f7b       0x89 c:/intelfpga_lite/20.1/nios2eds/bin/gnu/h-x86_64-mingw32/bin/../lib/gcc/nios2-elf/10.1.1/../../../../../H-x86_64-mingw32/nios2-elf/lib/mhw-mulx\libc.a(closer.o)
 .debug_loc     0x0000000000005004      0x2fc c:/intelfpga_lite/20.1/nios2eds/bin/gnu/h-x86_64-mingw32/bin/../lib/gcc/nios2-elf/10.1.1/../../../../../H-x86_64-mingw32/nios2-elf/lib/mhw-mulx\libc.a(lib_a-fclose.o)
 .debug_loc     0x0000000000005300      0x4c6 c:/intelfpga_lite/20.1/nios2eds/bin/gnu/h-x86_64-mingw32/bin/../lib/gcc/nios2-elf/10.1.1/../../../../../H-x86_64-mingw32/nios2-elf/lib/mhw-mulx\libc.a(lib_a-fflush.o)
 .debug_loc     0x00000000000057c6      0x614 c:/intelfpga_lite/20.1/nios2eds/bin/gnu/h-x86_64-mingw32/bin/../lib/gcc/nios2-elf/10.1.1/../../../../../H-x86_64-mingw32/nios2-elf/lib/mhw-mulx\libc.a(lib_a-freer.o)
 .debug_loc     0x0000000000005dda       0xed c:/intelfpga_lite/20.1/nios2eds/bin/gnu/h-x86_64-mingw32/bin/../lib/gcc/nios2-elf/10.1.1/../../../../../H-x86_64-mingw32/nios2-elf/lib/mhw-mulx\libc.a(lib_a-lseekr.o)
 .debug_loc     0x0000000000005ec7      0x449 c:/intelfpga_lite/20.1/nios2eds/bin/gnu/h-x86_64-mingw32/bin/../lib/gcc/nios2-elf/10.1.1/../../../../../H-x86_64-mingw32/nios2-elf/lib/mhw-mulx\libc.a(lib_a-makebuf.o)
 .debug_loc     0x0000000000006310       0xed c:/intelfpga_lite/20.1/nios2eds/bin/gnu/h-x86_64-mingw32/bin/../lib/gcc/nios2-elf/10.1.1/../../../../../H-x86_64-mingw32/nios2-elf/lib/mhw-mulx\libc.a(lib_a-readr.o)
 .debug_loc     0x00000000000063fd       0xbb c:/intelfpga_lite/20.1/nios2eds/bin/gnu/h-x86_64-mingw32/bin/../lib/gcc/nios2-elf/10.1.1/../../../../../H-x86_64-mingw32/nios2-elf/lib/mhw-mulx\libc.a(lib_a-fstatr.o)
 .debug_loc     0x00000000000064b8       0x89 c:/intelfpga_lite/20.1/nios2eds/bin/gnu/h-x86_64-mingw32/bin/../lib/gcc/nios2-elf/10.1.1/../../../../../H-x86_64-mingw32/nios2-elf/lib/mhw-mulx\libc.a(lib_a-isattyr.o)
 .debug_loc     0x0000000000006541      0x5d0 c:/intelfpga_lite/20.1/nios2eds/bin/gnu/h-x86_64-mingw32/bin/../lib/gcc/nios2-elf/10.1.1/mhw-mulx\libgcc.a(lib2-divmod.o)
 .debug_loc     0x0000000000006b11       0x32 c:/intelfpga_lite/20.1/nios2eds/bin/gnu/h-x86_64-mingw32/bin/../lib/gcc/nios2-elf/10.1.1/../../../../../H-x86_64-mingw32/nios2-elf/lib/mhw-mulx\libc.a(lib_a-atexit.o)
 .debug_loc     0x0000000000006b43       0x22 c:/intelfpga_lite/20.1/nios2eds/bin/gnu/h-x86_64-mingw32/bin/../lib/gcc/nios2-elf/10.1.1/../../../../../H-x86_64-mingw32/nios2-elf/lib/mhw-mulx\libc.a(lib_a-exit.o)
 .debug_loc     0x0000000000006b65      0x158 c:/intelfpga_lite/20.1/nios2eds/bin/gnu/h-x86_64-mingw32/bin/../lib/gcc/nios2-elf/10.1.1/../../../../../H-x86_64-mingw32/nios2-elf/lib/mhw-mulx\libc.a(lib_a-memcmp.o)
 .debug_loc     0x0000000000006cbd       0x91 c:/intelfpga_lite/20.1/nios2eds/bin/gnu/h-x86_64-mingw32/bin/../lib/gcc/nios2-elf/10.1.1/../../../../../H-x86_64-mingw32/nios2-elf/lib/mhw-mulx\libc.a(lib_a-putchar.o)
 .debug_loc     0x0000000000006d4e       0xf7 c:/intelfpga_lite/20.1/nios2eds/bin/gnu/h-x86_64-mingw32/bin/../lib/gcc/nios2-elf/10.1.1/../../../../../H-x86_64-mingw32/nios2-elf/lib/mhw-mulx\libc.a(lib_a-__atexit.o)
 .debug_loc     0x0000000000006e45      0x1ca c:/intelfpga_lite/20.1/nios2eds/bin/gnu/h-x86_64-mingw32/bin/../lib/gcc/nios2-elf/10.1.1/../../../../../H-x86_64-mingw32/nios2-elf/lib/mhw-mulx\libc.a(lib_a-__call_atexit.o)
 .debug_loc     0x000000000000700f      0x307 c:/intelfpga_lite/20.1/nios2eds/bin/gnu/h-x86_64-mingw32/bin/../lib/gcc/nios2-elf/10.1.1/../../../../../H-x86_64-mingw32/nios2-elf/lib/mhw-mulx\libc.a(lib_a-putc.o)
 .debug_loc     0x0000000000007316      0x201 c:/intelfpga_lite/20.1/nios2eds/bin/gnu/h-x86_64-mingw32/bin/../lib/gcc/nios2-elf/10.1.1/../../../../../H-x86_64-mingw32/nios2-elf/lib/mhw-mulx\libc.a(lib_a-wbuf.o)

.debug_macinfo
 *(.debug_macinfo)

.debug_weaknames
 *(.debug_weaknames)

.debug_funcnames
 *(.debug_funcnames)

.debug_typenames
 *(.debug_typenames)

.debug_varnames
 *(.debug_varnames)

.debug_alt_sim_info
                0x0000000000000000       0x50
 *(.debug_alt_sim_info)
 .debug_alt_sim_info
                0x0000000000000000       0x20 c:/users/bdunne/source/lcd_camera_example/lcd_camera_bsp/obj/HAL/src/crt0.o
 .debug_alt_sim_info
                0x0000000000000020       0x30 c:/users/bdunne/source/lcd_camera_example/lcd_camera_bsp\libhal_bsp.a(alt_busy_sleep.o)
                0x0000000004000000                __alt_data_end = 0x4000000
                0x0000000004000000                PROVIDE (__alt_stack_pointer = __alt_data_end)
                [!provide]                        PROVIDE (__alt_stack_limit = __alt_stack_base)
                0x0000000000183dec                PROVIDE (__alt_heap_start = end)
                0x0000000004000000                PROVIDE (__alt_heap_limit = 0x4000000)
OUTPUT(noname.elf elf32-littlenios2)
LOAD linker stubs

.debug_ranges   0x0000000000000000      0xd10
 .debug_ranges  0x0000000000000000       0x20 c:/users/bdunne/source/lcd_camera_example/lcd_camera_bsp/obj/HAL/src/crt0.o
 .debug_ranges  0x0000000000000020       0x68 c:/intelfpga_lite/20.1/nios2eds/bin/gnu/h-x86_64-mingw32/bin/../lib/gcc/nios2-elf/10.1.1/mhw-mulx\libgcc.a(gesf2.o)
 .debug_ranges  0x0000000000000088      0x278 c:/intelfpga_lite/20.1/nios2eds/bin/gnu/h-x86_64-mingw32/bin/../lib/gcc/nios2-elf/10.1.1/mhw-mulx\libgcc.a(subsf3.o)
 .debug_ranges  0x0000000000000300       0x18 c:/intelfpga_lite/20.1/nios2eds/bin/gnu/h-x86_64-mingw32/bin/../lib/gcc/nios2-elf/10.1.1/mhw-mulx\libgcc.a(fixsfsi.o)
 .debug_ranges  0x0000000000000318       0xa0 c:/intelfpga_lite/20.1/nios2eds/bin/gnu/h-x86_64-mingw32/bin/../lib/gcc/nios2-elf/10.1.1/mhw-mulx\libgcc.a(floatsisf.o)
 .debug_ranges  0x00000000000003b8       0x20 c:/intelfpga_lite/20.1/nios2eds/bin/gnu/h-x86_64-mingw32/bin/../lib/gcc/nios2-elf/10.1.1/mhw-mulx\libgcc.a(_clzsi2.o)
 .debug_ranges  0x00000000000003d8       0x30 c:/intelfpga_lite/20.1/nios2eds/bin/gnu/h-x86_64-mingw32/bin/../lib/gcc/nios2-elf/10.1.1/../../../../../H-x86_64-mingw32/nios2-elf/lib/mhw-mulx\libc.a(lib_a-puts.o)
 .debug_ranges  0x0000000000000408       0x10 c:/intelfpga_lite/20.1/nios2eds/bin/gnu/h-x86_64-mingw32/bin/../lib/gcc/nios2-elf/10.1.1/../../../../../H-x86_64-mingw32/nios2-elf/lib/mhw-mulx\libc.a(lib_a-strlen.o)
 .debug_ranges  0x0000000000000418      0x148 c:/intelfpga_lite/20.1/nios2eds/bin/gnu/h-x86_64-mingw32/bin/../lib/gcc/nios2-elf/10.1.1/../../../../../H-x86_64-mingw32/nios2-elf/lib/mhw-mulx\libc.a(lib_a-findfp.o)
 .debug_ranges  0x0000000000000560       0x38 c:/intelfpga_lite/20.1/nios2eds/bin/gnu/h-x86_64-mingw32/bin/../lib/gcc/nios2-elf/10.1.1/../../../../../H-x86_64-mingw32/nios2-elf/lib/mhw-mulx\libc.a(lib_a-fvwrite.o)
 .debug_ranges  0x0000000000000598       0x18 c:/intelfpga_lite/20.1/nios2eds/bin/gnu/h-x86_64-mingw32/bin/../lib/gcc/nios2-elf/10.1.1/../../../../../H-x86_64-mingw32/nios2-elf/lib/mhw-mulx\libc.a(lib_a-fwalk.o)
 .debug_ranges  0x00000000000005b0       0x60 c:/intelfpga_lite/20.1/nios2eds/bin/gnu/h-x86_64-mingw32/bin/../lib/gcc/nios2-elf/10.1.1/../../../../../H-x86_64-mingw32/nios2-elf/lib/mhw-mulx\libc.a(lib_a-mallocr.o)
 .debug_ranges  0x0000000000000610       0x10 c:/intelfpga_lite/20.1/nios2eds/bin/gnu/h-x86_64-mingw32/bin/../lib/gcc/nios2-elf/10.1.1/../../../../../H-x86_64-mingw32/nios2-elf/lib/mhw-mulx\libc.a(lib_a-memchr.o)
 .debug_ranges  0x0000000000000620       0x10 c:/intelfpga_lite/20.1/nios2eds/bin/gnu/h-x86_64-mingw32/bin/../lib/gcc/nios2-elf/10.1.1/../../../../../H-x86_64-mingw32/nios2-elf/lib/mhw-mulx\libc.a(lib_a-memcpy.o)
 .debug_ranges  0x0000000000000630       0x10 c:/intelfpga_lite/20.1/nios2eds/bin/gnu/h-x86_64-mingw32/bin/../lib/gcc/nios2-elf/10.1.1/../../../../../H-x86_64-mingw32/nios2-elf/lib/mhw-mulx\libc.a(lib_a-memmove.o)
 .debug_ranges  0x0000000000000640       0x10 c:/intelfpga_lite/20.1/nios2eds/bin/gnu/h-x86_64-mingw32/bin/../lib/gcc/nios2-elf/10.1.1/../../../../../H-x86_64-mingw32/nios2-elf/lib/mhw-mulx\libc.a(lib_a-memset.o)
 .debug_ranges  0x0000000000000650      0x160 c:/intelfpga_lite/20.1/nios2eds/bin/gnu/h-x86_64-mingw32/bin/../lib/gcc/nios2-elf/10.1.1/../../../../../H-x86_64-mingw32/nios2-elf/lib/mhw-mulx\libc.a(lib_a-reallocr.o)
 .debug_ranges  0x00000000000007b0       0x10 c:/intelfpga_lite/20.1/nios2eds/bin/gnu/h-x86_64-mingw32/bin/../lib/gcc/nios2-elf/10.1.1/../../../../../H-x86_64-mingw32/nios2-elf/lib/mhw-mulx\libc.a(lib_a-sbrkr.o)
 .debug_ranges  0x00000000000007c0       0x30 c:/intelfpga_lite/20.1/nios2eds/bin/gnu/h-x86_64-mingw32/bin/../lib/gcc/nios2-elf/10.1.1/../../../../../H-x86_64-mingw32/nios2-elf/lib/mhw-mulx\libc.a(lib_a-stdio.o)
 .debug_ranges  0x00000000000007f0       0x10 c:/intelfpga_lite/20.1/nios2eds/bin/gnu/h-x86_64-mingw32/bin/../lib/gcc/nios2-elf/10.1.1/../../../../../H-x86_64-mingw32/nios2-elf/lib/mhw-mulx\libc.a(lib_a-writer.o)
 .debug_ranges  0x0000000000000800       0x30 c:/intelfpga_lite/20.1/nios2eds/bin/gnu/h-x86_64-mingw32/bin/../lib/gcc/nios2-elf/10.1.1/../../../../../H-x86_64-mingw32/nios2-elf/lib/mhw-mulx\libc.a(lib_a-wsetup.o)
 .debug_ranges  0x0000000000000830       0x10 c:/intelfpga_lite/20.1/nios2eds/bin/gnu/h-x86_64-mingw32/bin/../lib/gcc/nios2-elf/10.1.1/../../../../../H-x86_64-mingw32/nios2-elf/lib/mhw-mulx\libc.a(closer.o)
 .debug_ranges  0x0000000000000840       0x90 c:/intelfpga_lite/20.1/nios2eds/bin/gnu/h-x86_64-mingw32/bin/../lib/gcc/nios2-elf/10.1.1/../../../../../H-x86_64-mingw32/nios2-elf/lib/mhw-mulx\libc.a(lib_a-fclose.o)
 .debug_ranges  0x00000000000008d0       0xc8 c:/intelfpga_lite/20.1/nios2eds/bin/gnu/h-x86_64-mingw32/bin/../lib/gcc/nios2-elf/10.1.1/../../../../../H-x86_64-mingw32/nios2-elf/lib/mhw-mulx\libc.a(lib_a-fflush.o)
 .debug_ranges  0x0000000000000998       0x18 c:/intelfpga_lite/20.1/nios2eds/bin/gnu/h-x86_64-mingw32/bin/../lib/gcc/nios2-elf/10.1.1/../../../../../H-x86_64-mingw32/nios2-elf/lib/mhw-mulx\libc.a(lib_a-freer.o)
 .debug_ranges  0x00000000000009b0       0x10 c:/intelfpga_lite/20.1/nios2eds/bin/gnu/h-x86_64-mingw32/bin/../lib/gcc/nios2-elf/10.1.1/../../../../../H-x86_64-mingw32/nios2-elf/lib/mhw-mulx\libc.a(lib_a-lseekr.o)
 .debug_ranges  0x00000000000009c0       0xc0 c:/intelfpga_lite/20.1/nios2eds/bin/gnu/h-x86_64-mingw32/bin/../lib/gcc/nios2-elf/10.1.1/../../../../../H-x86_64-mingw32/nios2-elf/lib/mhw-mulx\libc.a(lib_a-makebuf.o)
 .debug_ranges  0x0000000000000a80       0x10 c:/intelfpga_lite/20.1/nios2eds/bin/gnu/h-x86_64-mingw32/bin/../lib/gcc/nios2-elf/10.1.1/../../../../../H-x86_64-mingw32/nios2-elf/lib/mhw-mulx\libc.a(lib_a-readr.o)
 .debug_ranges  0x0000000000000a90       0x10 c:/intelfpga_lite/20.1/nios2eds/bin/gnu/h-x86_64-mingw32/bin/../lib/gcc/nios2-elf/10.1.1/../../../../../H-x86_64-mingw32/nios2-elf/lib/mhw-mulx\libc.a(lib_a-fstatr.o)
 .debug_ranges  0x0000000000000aa0       0x10 c:/intelfpga_lite/20.1/nios2eds/bin/gnu/h-x86_64-mingw32/bin/../lib/gcc/nios2-elf/10.1.1/../../../../../H-x86_64-mingw32/nios2-elf/lib/mhw-mulx\libc.a(lib_a-isattyr.o)
 .debug_ranges  0x0000000000000ab0       0x70 c:/intelfpga_lite/20.1/nios2eds/bin/gnu/h-x86_64-mingw32/bin/../lib/gcc/nios2-elf/10.1.1/mhw-mulx\libgcc.a(lib2-divmod.o)
 .debug_ranges  0x0000000000000b20       0x30 c:/users/bdunne/source/lcd_camera_example/lcd_camera_bsp\libhal_bsp.a(altera_avalon_jtag_uart_init.o)
 .debug_ranges  0x0000000000000b50       0x18 c:/users/bdunne/source/lcd_camera_example/lcd_camera_bsp\libhal_bsp.a(altera_avalon_jtag_uart_read.o)
 .debug_ranges  0x0000000000000b68       0x28 c:/users/bdunne/source/lcd_camera_example/lcd_camera_bsp\libhal_bsp.a(alt_irq_entry.o)
 .debug_ranges  0x0000000000000b90       0x10 c:/users/bdunne/source/lcd_camera_example/lcd_camera_bsp\libhal_bsp.a(alt_irq_handler.o)
 .debug_ranges  0x0000000000000ba0       0x30 c:/users/bdunne/source/lcd_camera_example/lcd_camera_bsp\libhal_bsp.a(alt_exception_entry.o)
 .debug_ranges  0x0000000000000bd0       0x18 c:/users/bdunne/source/lcd_camera_example/lcd_camera_bsp\libhal_bsp.a(alt_instruction_exception_entry.o)
 .debug_ranges  0x0000000000000be8       0x10 c:/intelfpga_lite/20.1/nios2eds/bin/gnu/h-x86_64-mingw32/bin/../lib/gcc/nios2-elf/10.1.1/../../../../../H-x86_64-mingw32/nios2-elf/lib/mhw-mulx\libc.a(lib_a-atexit.o)
 .debug_ranges  0x0000000000000bf8       0x10 c:/intelfpga_lite/20.1/nios2eds/bin/gnu/h-x86_64-mingw32/bin/../lib/gcc/nios2-elf/10.1.1/../../../../../H-x86_64-mingw32/nios2-elf/lib/mhw-mulx\libc.a(lib_a-exit.o)
 .debug_ranges  0x0000000000000c08       0x10 c:/intelfpga_lite/20.1/nios2eds/bin/gnu/h-x86_64-mingw32/bin/../lib/gcc/nios2-elf/10.1.1/../../../../../H-x86_64-mingw32/nios2-elf/lib/mhw-mulx\libc.a(lib_a-memcmp.o)
 .debug_ranges  0x0000000000000c18       0x18 c:/intelfpga_lite/20.1/nios2eds/bin/gnu/h-x86_64-mingw32/bin/../lib/gcc/nios2-elf/10.1.1/../../../../../H-x86_64-mingw32/nios2-elf/lib/mhw-mulx\libc.a(lib_a-putchar.o)
 .debug_ranges  0x0000000000000c30       0x10 c:/intelfpga_lite/20.1/nios2eds/bin/gnu/h-x86_64-mingw32/bin/../lib/gcc/nios2-elf/10.1.1/../../../../../H-x86_64-mingw32/nios2-elf/lib/mhw-mulx\libc.a(lib_a-__atexit.o)
 .debug_ranges  0x0000000000000c40       0x38 c:/intelfpga_lite/20.1/nios2eds/bin/gnu/h-x86_64-mingw32/bin/../lib/gcc/nios2-elf/10.1.1/../../../../../H-x86_64-mingw32/nios2-elf/lib/mhw-mulx\libc.a(lib_a-__call_atexit.o)
 .debug_ranges  0x0000000000000c78       0x58 c:/intelfpga_lite/20.1/nios2eds/bin/gnu/h-x86_64-mingw32/bin/../lib/gcc/nios2-elf/10.1.1/../../../../../H-x86_64-mingw32/nios2-elf/lib/mhw-mulx\libc.a(lib_a-putc.o)
 .debug_ranges  0x0000000000000cd0       0x40 c:/intelfpga_lite/20.1/nios2eds/bin/gnu/h-x86_64-mingw32/bin/../lib/gcc/nios2-elf/10.1.1/../../../../../H-x86_64-mingw32/nios2-elf/lib/mhw-mulx\libc.a(lib_a-wbuf.o)
